	.file	"Minimum_Lines_to_Cover.cpp"
	.section	.text._ZnwjPv,"axG",@progbits,_ZnwjPv,comdat
	.weak	_ZnwjPv
	.type	_ZnwjPv, @function
_ZnwjPv:
	pushl	%ebp
	movl	%esp, %ebp
	movl	12(%ebp), %eax
	popl	%ebp
	ret
	.size	_ZnwjPv, .-_ZnwjPv
	.text
	.globl	_Z3gcdii
	.type	_Z3gcdii, @function
_Z3gcdii:
	pushl	%ebp
	movl	%esp, %ebp
	subl	$8, %esp
	cmpl	$0, 12(%ebp)
	jne	.L4
	movl	8(%ebp), %eax
	jmp	.L5
.L4:
	movl	8(%ebp), %eax
	cltd
	idivl	12(%ebp)
	movl	%edx, %eax
	subl	$8, %esp
	pushl	%eax
	pushl	12(%ebp)
	call	_Z3gcdii
	addl	$16, %esp
.L5:
	leave
	ret
	.size	_Z3gcdii, .-_Z3gcdii
	.globl	_Z14getReducedFormii
	.type	_Z14getReducedFormii, @function
_Z14getReducedFormii:
	pushl	%ebp
	movl	%esp, %ebp
	subl	$40, %esp
	movl	8(%ebp), %eax
	movl	%eax, -28(%ebp)
	movl	%gs:20, %eax
	movl	%eax, -12(%ebp)
	xorl	%eax, %eax
	movl	16(%ebp), %eax
	sarl	$31, %eax
	movl	%eax, %edx
	xorl	16(%ebp), %edx
	subl	%eax, %edx
	movl	12(%ebp), %eax
	sarl	$31, %eax
	movl	%eax, %ecx
	movl	%ecx, %eax
	xorl	12(%ebp), %eax
	subl	%ecx, %eax
	subl	$8, %esp
	pushl	%edx
	pushl	%eax
	call	_Z3gcdii
	addl	$16, %esp
	movl	%eax, -16(%ebp)
	movl	12(%ebp), %eax
	shrl	$31, %eax
	movl	%eax, %edx
	movl	16(%ebp), %eax
	shrl	$31, %eax
	xorl	%edx, %eax
	movb	%al, -17(%ebp)
	cmpb	$0, -17(%ebp)
	je	.L7
	movl	16(%ebp), %eax
	cltd
	movl	%edx, %eax
	xorl	16(%ebp), %eax
	subl	%edx, %eax
	cltd
	idivl	-16(%ebp)
	movl	%eax, %ecx
	movl	12(%ebp), %eax
	cltd
	movl	%edx, %eax
	xorl	12(%ebp), %eax
	subl	%edx, %eax
	negl	%eax
	cltd
	idivl	-16(%ebp)
	movl	%eax, %edx
	movl	-28(%ebp), %eax
	subl	$4, %esp
	pushl	%ecx
	pushl	%edx
	pushl	%eax
	call	_ZSt9make_pairIiiESt4pairIT_T0_ES1_S2_
	addl	$12, %esp
	jmp	.L6
.L7:
	movl	16(%ebp), %eax
	cltd
	movl	%edx, %eax
	xorl	16(%ebp), %eax
	subl	%edx, %eax
	cltd
	idivl	-16(%ebp)
	movl	%eax, %ecx
	movl	12(%ebp), %eax
	cltd
	movl	%edx, %eax
	xorl	12(%ebp), %eax
	subl	%edx, %eax
	cltd
	idivl	-16(%ebp)
	movl	%eax, %edx
	movl	-28(%ebp), %eax
	subl	$4, %esp
	pushl	%ecx
	pushl	%edx
	pushl	%eax
	call	_ZSt9make_pairIiiESt4pairIT_T0_ES1_S2_
	addl	$12, %esp
.L6:
	movl	-28(%ebp), %eax
	movl	-12(%ebp), %ecx
	xorl	%gs:20, %ecx
	je	.L9
	call	__stack_chk_fail
.L9:
	leave
	ret	$4
	.size	_Z14getReducedFormii, .-_Z14getReducedFormii
	.section	.text._ZNSt3setISt4pairIiiESt4lessIS1_ESaIS1_EED2Ev,"axG",@progbits,_ZNSt3setISt4pairIiiESt4lessIS1_ESaIS1_EED5Ev,comdat
	.align 2
	.weak	_ZNSt3setISt4pairIiiESt4lessIS1_ESaIS1_EED2Ev
	.type	_ZNSt3setISt4pairIiiESt4lessIS1_ESaIS1_EED2Ev, @function
_ZNSt3setISt4pairIiiESt4lessIS1_ESaIS1_EED2Ev:
	pushl	%ebp
	movl	%esp, %ebp
	subl	$8, %esp
	movl	8(%ebp), %eax
	subl	$12, %esp
	pushl	%eax
	call	_ZNSt8_Rb_treeISt4pairIiiES1_St9_IdentityIS1_ESt4lessIS1_ESaIS1_EED1Ev
	addl	$16, %esp
	nop
	leave
	ret
	.size	_ZNSt3setISt4pairIiiESt4lessIS1_ESaIS1_EED2Ev, .-_ZNSt3setISt4pairIiiESt4lessIS1_ESaIS1_EED2Ev
	.weak	_ZNSt3setISt4pairIiiESt4lessIS1_ESaIS1_EED1Ev
	.set	_ZNSt3setISt4pairIiiESt4lessIS1_ESaIS1_EED1Ev,_ZNSt3setISt4pairIiiESt4lessIS1_ESaIS1_EED2Ev
	.text
	.globl	_Z21minLinesToCoverPointsPA2_iiii
	.type	_Z21minLinesToCoverPointsPA2_iiii, @function
_Z21minLinesToCoverPointsPA2_iiii:
	pushl	%ebp
	movl	%esp, %ebp
	pushl	%ebx
	subl	$84, %esp
	movl	8(%ebp), %eax
	movl	%eax, -76(%ebp)
	movl	%gs:20, %eax
	movl	%eax, -12(%ebp)
	xorl	%eax, %eax
	subl	$12, %esp
	leal	-36(%ebp), %eax
	pushl	%eax
	call	_ZNSt3setISt4pairIiiESt4lessIS1_ESaIS1_EEC1Ev
	addl	$16, %esp
	subl	$12, %esp
	leal	-52(%ebp), %eax
	pushl	%eax
	call	_ZNSt4pairIiiEC1Ev
	addl	$16, %esp
	movl	$0, -68(%ebp)
	movl	$0, -64(%ebp)
.L14:
	movl	-64(%ebp), %eax
	cmpl	12(%ebp), %eax
	jge	.L12
	movl	-64(%ebp), %eax
	leal	0(,%eax,8), %edx
	movl	-76(%ebp), %eax
	addl	%edx, %eax
	movl	(%eax), %eax
	movl	%eax, -60(%ebp)
	movl	-64(%ebp), %eax
	leal	0(,%eax,8), %edx
	movl	-76(%ebp), %eax
	addl	%edx, %eax
	movl	4(%eax), %eax
	movl	%eax, -56(%ebp)
	movl	-60(%ebp), %eax
	subl	16(%ebp), %eax
	movl	%eax, %ecx
	movl	-56(%ebp), %eax
	subl	20(%ebp), %eax
	movl	%eax, %edx
	leal	-88(%ebp), %eax
	subl	$4, %esp
	pushl	%ecx
	pushl	%edx
	pushl	%eax
	call	_Z14getReducedFormii
	addl	$12, %esp
	movl	-88(%ebp), %eax
	movl	-84(%ebp), %edx
	movl	%eax, -52(%ebp)
	movl	%edx, -48(%ebp)
	leal	-44(%ebp), %eax
	subl	$8, %esp
	leal	-36(%ebp), %edx
	pushl	%edx
	pushl	%eax
	call	_ZNKSt3setISt4pairIiiESt4lessIS1_ESaIS1_EE3endEv
	addl	$12, %esp
	leal	-72(%ebp), %eax
	subl	$4, %esp
	leal	-52(%ebp), %edx
	pushl	%edx
	leal	-36(%ebp), %edx
	pushl	%edx
	pushl	%eax
	call	_ZNSt3setISt4pairIiiESt4lessIS1_ESaIS1_EE4findERKS1_
	addl	$12, %esp
	subl	$8, %esp
	leal	-44(%ebp), %eax
	pushl	%eax
	leal	-72(%ebp), %eax
	pushl	%eax
	call	_ZNKSt23_Rb_tree_const_iteratorISt4pairIiiEEeqERKS2_
	addl	$16, %esp
	testb	%al, %al
	je	.L13
	leal	-44(%ebp), %eax
	subl	$4, %esp
	leal	-52(%ebp), %edx
	pushl	%edx
	leal	-36(%ebp), %edx
	pushl	%edx
	pushl	%eax
	call	_ZNSt3setISt4pairIiiESt4lessIS1_ESaIS1_EE6insertERKS1_
	addl	$12, %esp
	addl	$1, -68(%ebp)
.L13:
	addl	$1, -64(%ebp)
	jmp	.L14
.L12:
	movl	-68(%ebp), %ebx
	subl	$12, %esp
	leal	-36(%ebp), %eax
	pushl	%eax
	call	_ZNSt3setISt4pairIiiESt4lessIS1_ESaIS1_EED1Ev
	addl	$16, %esp
	movl	%ebx, %eax
	movl	-12(%ebp), %ecx
	xorl	%gs:20, %ecx
	je	.L16
	call	__stack_chk_fail
.L16:
	movl	-4(%ebp), %ebx
	leave
	ret
	.size	_Z21minLinesToCoverPointsPA2_iiii, .-_Z21minLinesToCoverPointsPA2_iiii
	.globl	main
	.type	main, @function
main:
	leal	4(%esp), %ecx
	andl	$-16, %esp
	pushl	-4(%ecx)
	pushl	%ebp
	movl	%esp, %ebp
	pushl	%ecx
	subl	$68, %esp
	movl	%gs:20, %eax
	movl	%eax, -12(%ebp)
	xorl	%eax, %eax
	movl	$1, -68(%ebp)
	movl	$0, -64(%ebp)
	movl	$-1, -52(%ebp)
	movl	$3, -48(%ebp)
	movl	$4, -44(%ebp)
	movl	$3, -40(%ebp)
	movl	$2, -36(%ebp)
	movl	$1, -32(%ebp)
	movl	$-1, -28(%ebp)
	movl	$-2, -24(%ebp)
	movl	$3, -20(%ebp)
	movl	$-3, -16(%ebp)
	movl	$5, %eax
	movl	%eax, -60(%ebp)
	pushl	-64(%ebp)
	pushl	-68(%ebp)
	pushl	-60(%ebp)
	leal	-52(%ebp), %eax
	pushl	%eax
	call	_Z21minLinesToCoverPointsPA2_iiii
	addl	$16, %esp
	movl	%eax, -56(%ebp)
	movl	-56(%ebp), %eax
	movl	-12(%ebp), %edx
	xorl	%gs:20, %edx
	je	.L19
	call	__stack_chk_fail
.L19:
	movl	-4(%ebp), %ecx
	leave
	leal	-4(%ecx), %esp
	ret
	.size	main, .-main
	.section	.text._ZSt9make_pairIiiESt4pairIT_T0_ES1_S2_,"axG",@progbits,_ZSt9make_pairIiiESt4pairIT_T0_ES1_S2_,comdat
	.weak	_ZSt9make_pairIiiESt4pairIT_T0_ES1_S2_
	.type	_ZSt9make_pairIiiESt4pairIT_T0_ES1_S2_, @function
_ZSt9make_pairIiiESt4pairIT_T0_ES1_S2_:
	pushl	%ebp
	movl	%esp, %ebp
	subl	$8, %esp
	subl	$4, %esp
	leal	16(%ebp), %eax
	pushl	%eax
	leal	12(%ebp), %eax
	pushl	%eax
	pushl	8(%ebp)
	call	_ZNSt4pairIiiEC1ERKiS2_
	addl	$16, %esp
	movl	8(%ebp), %eax
	leave
	ret	$4
	.size	_ZSt9make_pairIiiESt4pairIT_T0_ES1_S2_, .-_ZSt9make_pairIiiESt4pairIT_T0_ES1_S2_
	.section	.text._ZNSt3setISt4pairIiiESt4lessIS1_ESaIS1_EEC2Ev,"axG",@progbits,_ZNSt3setISt4pairIiiESt4lessIS1_ESaIS1_EEC5Ev,comdat
	.align 2
	.weak	_ZNSt3setISt4pairIiiESt4lessIS1_ESaIS1_EEC2Ev
	.type	_ZNSt3setISt4pairIiiESt4lessIS1_ESaIS1_EEC2Ev, @function
_ZNSt3setISt4pairIiiESt4lessIS1_ESaIS1_EEC2Ev:
	pushl	%ebp
	movl	%esp, %ebp
	subl	$8, %esp
	movl	8(%ebp), %eax
	subl	$12, %esp
	pushl	%eax
	call	_ZNSt8_Rb_treeISt4pairIiiES1_St9_IdentityIS1_ESt4lessIS1_ESaIS1_EEC1Ev
	addl	$16, %esp
	nop
	leave
	ret
	.size	_ZNSt3setISt4pairIiiESt4lessIS1_ESaIS1_EEC2Ev, .-_ZNSt3setISt4pairIiiESt4lessIS1_ESaIS1_EEC2Ev
	.weak	_ZNSt3setISt4pairIiiESt4lessIS1_ESaIS1_EEC1Ev
	.set	_ZNSt3setISt4pairIiiESt4lessIS1_ESaIS1_EEC1Ev,_ZNSt3setISt4pairIiiESt4lessIS1_ESaIS1_EEC2Ev
	.section	.text._ZNSt8_Rb_treeISt4pairIiiES1_St9_IdentityIS1_ESt4lessIS1_ESaIS1_EE13_Rb_tree_implIS5_Lb0EED2Ev,"axG",@progbits,_ZNSt8_Rb_treeISt4pairIiiES1_St9_IdentityIS1_ESt4lessIS1_ESaIS1_EE13_Rb_tree_implIS5_Lb0EED5Ev,comdat
	.align 2
	.weak	_ZNSt8_Rb_treeISt4pairIiiES1_St9_IdentityIS1_ESt4lessIS1_ESaIS1_EE13_Rb_tree_implIS5_Lb0EED2Ev
	.type	_ZNSt8_Rb_treeISt4pairIiiES1_St9_IdentityIS1_ESt4lessIS1_ESaIS1_EE13_Rb_tree_implIS5_Lb0EED2Ev, @function
_ZNSt8_Rb_treeISt4pairIiiES1_St9_IdentityIS1_ESt4lessIS1_ESaIS1_EE13_Rb_tree_implIS5_Lb0EED2Ev:
	pushl	%ebp
	movl	%esp, %ebp
	subl	$8, %esp
	subl	$12, %esp
	pushl	8(%ebp)
	call	_ZNSaISt13_Rb_tree_nodeISt4pairIiiEEED2Ev
	addl	$16, %esp
	nop
	leave
	ret
	.size	_ZNSt8_Rb_treeISt4pairIiiES1_St9_IdentityIS1_ESt4lessIS1_ESaIS1_EE13_Rb_tree_implIS5_Lb0EED2Ev, .-_ZNSt8_Rb_treeISt4pairIiiES1_St9_IdentityIS1_ESt4lessIS1_ESaIS1_EE13_Rb_tree_implIS5_Lb0EED2Ev
	.weak	_ZNSt8_Rb_treeISt4pairIiiES1_St9_IdentityIS1_ESt4lessIS1_ESaIS1_EE13_Rb_tree_implIS5_Lb0EED1Ev
	.set	_ZNSt8_Rb_treeISt4pairIiiES1_St9_IdentityIS1_ESt4lessIS1_ESaIS1_EE13_Rb_tree_implIS5_Lb0EED1Ev,_ZNSt8_Rb_treeISt4pairIiiES1_St9_IdentityIS1_ESt4lessIS1_ESaIS1_EE13_Rb_tree_implIS5_Lb0EED2Ev
	.section	.text._ZNSt8_Rb_treeISt4pairIiiES1_St9_IdentityIS1_ESt4lessIS1_ESaIS1_EED2Ev,"axG",@progbits,_ZNSt8_Rb_treeISt4pairIiiES1_St9_IdentityIS1_ESt4lessIS1_ESaIS1_EED5Ev,comdat
	.align 2
	.weak	_ZNSt8_Rb_treeISt4pairIiiES1_St9_IdentityIS1_ESt4lessIS1_ESaIS1_EED2Ev
	.type	_ZNSt8_Rb_treeISt4pairIiiES1_St9_IdentityIS1_ESt4lessIS1_ESaIS1_EED2Ev, @function
_ZNSt8_Rb_treeISt4pairIiiES1_St9_IdentityIS1_ESt4lessIS1_ESaIS1_EED2Ev:
	pushl	%ebp
	movl	%esp, %ebp
	subl	$8, %esp
	subl	$12, %esp
	pushl	8(%ebp)
	call	_ZNSt8_Rb_treeISt4pairIiiES1_St9_IdentityIS1_ESt4lessIS1_ESaIS1_EE8_M_beginEv
	addl	$16, %esp
	subl	$8, %esp
	pushl	%eax
	pushl	8(%ebp)
	call	_ZNSt8_Rb_treeISt4pairIiiES1_St9_IdentityIS1_ESt4lessIS1_ESaIS1_EE8_M_eraseEPSt13_Rb_tree_nodeIS1_E
	addl	$16, %esp
	movl	8(%ebp), %eax
	subl	$12, %esp
	pushl	%eax
	call	_ZNSt8_Rb_treeISt4pairIiiES1_St9_IdentityIS1_ESt4lessIS1_ESaIS1_EE13_Rb_tree_implIS5_Lb0EED1Ev
	addl	$16, %esp
	nop
	leave
	ret
	.size	_ZNSt8_Rb_treeISt4pairIiiES1_St9_IdentityIS1_ESt4lessIS1_ESaIS1_EED2Ev, .-_ZNSt8_Rb_treeISt4pairIiiES1_St9_IdentityIS1_ESt4lessIS1_ESaIS1_EED2Ev
	.weak	_ZNSt8_Rb_treeISt4pairIiiES1_St9_IdentityIS1_ESt4lessIS1_ESaIS1_EED1Ev
	.set	_ZNSt8_Rb_treeISt4pairIiiES1_St9_IdentityIS1_ESt4lessIS1_ESaIS1_EED1Ev,_ZNSt8_Rb_treeISt4pairIiiES1_St9_IdentityIS1_ESt4lessIS1_ESaIS1_EED2Ev
	.section	.text._ZNSt4pairIiiEC2Ev,"axG",@progbits,_ZNSt4pairIiiEC5Ev,comdat
	.align 2
	.weak	_ZNSt4pairIiiEC2Ev
	.type	_ZNSt4pairIiiEC2Ev, @function
_ZNSt4pairIiiEC2Ev:
	pushl	%ebp
	movl	%esp, %ebp
	movl	8(%ebp), %eax
	movl	$0, (%eax)
	movl	8(%ebp), %eax
	movl	$0, 4(%eax)
	nop
	popl	%ebp
	ret
	.size	_ZNSt4pairIiiEC2Ev, .-_ZNSt4pairIiiEC2Ev
	.weak	_ZNSt4pairIiiEC1Ev
	.set	_ZNSt4pairIiiEC1Ev,_ZNSt4pairIiiEC2Ev
	.section	.text._ZNSt3setISt4pairIiiESt4lessIS1_ESaIS1_EE4findERKS1_,"axG",@progbits,_ZNSt3setISt4pairIiiESt4lessIS1_ESaIS1_EE4findERKS1_,comdat
	.align 2
	.weak	_ZNSt3setISt4pairIiiESt4lessIS1_ESaIS1_EE4findERKS1_
	.type	_ZNSt3setISt4pairIiiESt4lessIS1_ESaIS1_EE4findERKS1_, @function
_ZNSt3setISt4pairIiiESt4lessIS1_ESaIS1_EE4findERKS1_:
	pushl	%ebp
	movl	%esp, %ebp
	subl	$40, %esp
	movl	8(%ebp), %eax
	movl	%eax, -28(%ebp)
	movl	12(%ebp), %eax
	movl	%eax, -32(%ebp)
	movl	16(%ebp), %eax
	movl	%eax, -36(%ebp)
	movl	%gs:20, %eax
	movl	%eax, -12(%ebp)
	xorl	%eax, %eax
	movl	-32(%ebp), %edx
	leal	-16(%ebp), %eax
	subl	$4, %esp
	pushl	-36(%ebp)
	pushl	%edx
	pushl	%eax
	call	_ZNSt8_Rb_treeISt4pairIiiES1_St9_IdentityIS1_ESt4lessIS1_ESaIS1_EE4findERKS1_
	addl	$12, %esp
	subl	$8, %esp
	leal	-16(%ebp), %eax
	pushl	%eax
	pushl	-28(%ebp)
	call	_ZNSt23_Rb_tree_const_iteratorISt4pairIiiEEC1ERKSt17_Rb_tree_iteratorIS1_E
	addl	$16, %esp
	movl	-28(%ebp), %eax
	movl	-12(%ebp), %ecx
	xorl	%gs:20, %ecx
	je	.L28
	call	__stack_chk_fail
.L28:
	leave
	ret	$4
	.size	_ZNSt3setISt4pairIiiESt4lessIS1_ESaIS1_EE4findERKS1_, .-_ZNSt3setISt4pairIiiESt4lessIS1_ESaIS1_EE4findERKS1_
	.section	.text._ZNKSt3setISt4pairIiiESt4lessIS1_ESaIS1_EE3endEv,"axG",@progbits,_ZNKSt3setISt4pairIiiESt4lessIS1_ESaIS1_EE3endEv,comdat
	.align 2
	.weak	_ZNKSt3setISt4pairIiiESt4lessIS1_ESaIS1_EE3endEv
	.type	_ZNKSt3setISt4pairIiiESt4lessIS1_ESaIS1_EE3endEv, @function
_ZNKSt3setISt4pairIiiESt4lessIS1_ESaIS1_EE3endEv:
	pushl	%ebp
	movl	%esp, %ebp
	subl	$40, %esp
	movl	8(%ebp), %eax
	movl	%eax, -28(%ebp)
	movl	12(%ebp), %eax
	movl	%eax, -32(%ebp)
	movl	%gs:20, %eax
	movl	%eax, -12(%ebp)
	xorl	%eax, %eax
	movl	-32(%ebp), %edx
	movl	-28(%ebp), %eax
	subl	$8, %esp
	pushl	%edx
	pushl	%eax
	call	_ZNKSt8_Rb_treeISt4pairIiiES1_St9_IdentityIS1_ESt4lessIS1_ESaIS1_EE3endEv
	addl	$12, %esp
	movl	-28(%ebp), %eax
	movl	-12(%ebp), %ecx
	xorl	%gs:20, %ecx
	je	.L31
	call	__stack_chk_fail
.L31:
	leave
	ret	$4
	.size	_ZNKSt3setISt4pairIiiESt4lessIS1_ESaIS1_EE3endEv, .-_ZNKSt3setISt4pairIiiESt4lessIS1_ESaIS1_EE3endEv
	.section	.text._ZNKSt23_Rb_tree_const_iteratorISt4pairIiiEEeqERKS2_,"axG",@progbits,_ZNKSt23_Rb_tree_const_iteratorISt4pairIiiEEeqERKS2_,comdat
	.align 2
	.weak	_ZNKSt23_Rb_tree_const_iteratorISt4pairIiiEEeqERKS2_
	.type	_ZNKSt23_Rb_tree_const_iteratorISt4pairIiiEEeqERKS2_, @function
_ZNKSt23_Rb_tree_const_iteratorISt4pairIiiEEeqERKS2_:
	pushl	%ebp
	movl	%esp, %ebp
	movl	8(%ebp), %eax
	movl	(%eax), %edx
	movl	12(%ebp), %eax
	movl	(%eax), %eax
	cmpl	%eax, %edx
	sete	%al
	popl	%ebp
	ret
	.size	_ZNKSt23_Rb_tree_const_iteratorISt4pairIiiEEeqERKS2_, .-_ZNKSt23_Rb_tree_const_iteratorISt4pairIiiEEeqERKS2_
	.section	.text._ZNSt3setISt4pairIiiESt4lessIS1_ESaIS1_EE6insertERKS1_,"axG",@progbits,_ZNSt3setISt4pairIiiESt4lessIS1_ESaIS1_EE6insertERKS1_,comdat
	.align 2
	.weak	_ZNSt3setISt4pairIiiESt4lessIS1_ESaIS1_EE6insertERKS1_
	.type	_ZNSt3setISt4pairIiiESt4lessIS1_ESaIS1_EE6insertERKS1_, @function
_ZNSt3setISt4pairIiiESt4lessIS1_ESaIS1_EE6insertERKS1_:
	pushl	%ebp
	movl	%esp, %ebp
	subl	$40, %esp
	movl	8(%ebp), %eax
	movl	%eax, -28(%ebp)
	movl	12(%ebp), %eax
	movl	%eax, -32(%ebp)
	movl	16(%ebp), %eax
	movl	%eax, -36(%ebp)
	movl	%gs:20, %eax
	movl	%eax, -12(%ebp)
	xorl	%eax, %eax
	movl	-32(%ebp), %edx
	leal	-20(%ebp), %eax
	subl	$4, %esp
	pushl	-36(%ebp)
	pushl	%edx
	pushl	%eax
	call	_ZNSt8_Rb_treeISt4pairIiiES1_St9_IdentityIS1_ESt4lessIS1_ESaIS1_EE16_M_insert_uniqueERKS1_
	addl	$12, %esp
	subl	$8, %esp
	leal	-20(%ebp), %eax
	pushl	%eax
	leal	-24(%ebp), %eax
	pushl	%eax
	call	_ZNSt23_Rb_tree_const_iteratorISt4pairIiiEEC1ERKSt17_Rb_tree_iteratorIS1_E
	addl	$16, %esp
	subl	$4, %esp
	leal	-20(%ebp), %eax
	addl	$4, %eax
	pushl	%eax
	leal	-24(%ebp), %eax
	pushl	%eax
	pushl	-28(%ebp)
	call	_ZNSt4pairISt23_Rb_tree_const_iteratorIS_IiiEEbEC1ERKS2_RKb
	addl	$16, %esp
	movl	-28(%ebp), %eax
	movl	-12(%ebp), %ecx
	xorl	%gs:20, %ecx
	je	.L36
	call	__stack_chk_fail
.L36:
	leave
	ret	$4
	.size	_ZNSt3setISt4pairIiiESt4lessIS1_ESaIS1_EE6insertERKS1_, .-_ZNSt3setISt4pairIiiESt4lessIS1_ESaIS1_EE6insertERKS1_
	.section	.text._ZNSt4pairIiiEC2ERKiS2_,"axG",@progbits,_ZNSt4pairIiiEC5ERKiS2_,comdat
	.align 2
	.weak	_ZNSt4pairIiiEC2ERKiS2_
	.type	_ZNSt4pairIiiEC2ERKiS2_, @function
_ZNSt4pairIiiEC2ERKiS2_:
	pushl	%ebp
	movl	%esp, %ebp
	movl	12(%ebp), %eax
	movl	(%eax), %edx
	movl	8(%ebp), %eax
	movl	%edx, (%eax)
	movl	16(%ebp), %eax
	movl	(%eax), %edx
	movl	8(%ebp), %eax
	movl	%edx, 4(%eax)
	nop
	popl	%ebp
	ret
	.size	_ZNSt4pairIiiEC2ERKiS2_, .-_ZNSt4pairIiiEC2ERKiS2_
	.weak	_ZNSt4pairIiiEC1ERKiS2_
	.set	_ZNSt4pairIiiEC1ERKiS2_,_ZNSt4pairIiiEC2ERKiS2_
	.section	.text._ZNSt8_Rb_treeISt4pairIiiES1_St9_IdentityIS1_ESt4lessIS1_ESaIS1_EEC2Ev,"axG",@progbits,_ZNSt8_Rb_treeISt4pairIiiES1_St9_IdentityIS1_ESt4lessIS1_ESaIS1_EEC5Ev,comdat
	.align 2
	.weak	_ZNSt8_Rb_treeISt4pairIiiES1_St9_IdentityIS1_ESt4lessIS1_ESaIS1_EEC2Ev
	.type	_ZNSt8_Rb_treeISt4pairIiiES1_St9_IdentityIS1_ESt4lessIS1_ESaIS1_EEC2Ev, @function
_ZNSt8_Rb_treeISt4pairIiiES1_St9_IdentityIS1_ESt4lessIS1_ESaIS1_EEC2Ev:
	pushl	%ebp
	movl	%esp, %ebp
	subl	$8, %esp
	movl	8(%ebp), %eax
	subl	$12, %esp
	pushl	%eax
	call	_ZNSt8_Rb_treeISt4pairIiiES1_St9_IdentityIS1_ESt4lessIS1_ESaIS1_EE13_Rb_tree_implIS5_Lb0EEC1Ev
	addl	$16, %esp
	nop
	leave
	ret
	.size	_ZNSt8_Rb_treeISt4pairIiiES1_St9_IdentityIS1_ESt4lessIS1_ESaIS1_EEC2Ev, .-_ZNSt8_Rb_treeISt4pairIiiES1_St9_IdentityIS1_ESt4lessIS1_ESaIS1_EEC2Ev
	.weak	_ZNSt8_Rb_treeISt4pairIiiES1_St9_IdentityIS1_ESt4lessIS1_ESaIS1_EEC1Ev
	.set	_ZNSt8_Rb_treeISt4pairIiiES1_St9_IdentityIS1_ESt4lessIS1_ESaIS1_EEC1Ev,_ZNSt8_Rb_treeISt4pairIiiES1_St9_IdentityIS1_ESt4lessIS1_ESaIS1_EEC2Ev
	.section	.text._ZNSaISt13_Rb_tree_nodeISt4pairIiiEEED2Ev,"axG",@progbits,_ZNSaISt13_Rb_tree_nodeISt4pairIiiEEED5Ev,comdat
	.align 2
	.weak	_ZNSaISt13_Rb_tree_nodeISt4pairIiiEEED2Ev
	.type	_ZNSaISt13_Rb_tree_nodeISt4pairIiiEEED2Ev, @function
_ZNSaISt13_Rb_tree_nodeISt4pairIiiEEED2Ev:
	pushl	%ebp
	movl	%esp, %ebp
	subl	$8, %esp
	subl	$12, %esp
	pushl	8(%ebp)
	call	_ZN9__gnu_cxx13new_allocatorISt13_Rb_tree_nodeISt4pairIiiEEED2Ev
	addl	$16, %esp
	nop
	leave
	ret
	.size	_ZNSaISt13_Rb_tree_nodeISt4pairIiiEEED2Ev, .-_ZNSaISt13_Rb_tree_nodeISt4pairIiiEEED2Ev
	.weak	_ZNSaISt13_Rb_tree_nodeISt4pairIiiEEED1Ev
	.set	_ZNSaISt13_Rb_tree_nodeISt4pairIiiEEED1Ev,_ZNSaISt13_Rb_tree_nodeISt4pairIiiEEED2Ev
	.section	.text._ZNSt8_Rb_treeISt4pairIiiES1_St9_IdentityIS1_ESt4lessIS1_ESaIS1_EE8_M_eraseEPSt13_Rb_tree_nodeIS1_E,"axG",@progbits,_ZNSt8_Rb_treeISt4pairIiiES1_St9_IdentityIS1_ESt4lessIS1_ESaIS1_EE8_M_eraseEPSt13_Rb_tree_nodeIS1_E,comdat
	.align 2
	.weak	_ZNSt8_Rb_treeISt4pairIiiES1_St9_IdentityIS1_ESt4lessIS1_ESaIS1_EE8_M_eraseEPSt13_Rb_tree_nodeIS1_E
	.type	_ZNSt8_Rb_treeISt4pairIiiES1_St9_IdentityIS1_ESt4lessIS1_ESaIS1_EE8_M_eraseEPSt13_Rb_tree_nodeIS1_E, @function
_ZNSt8_Rb_treeISt4pairIiiES1_St9_IdentityIS1_ESt4lessIS1_ESaIS1_EE8_M_eraseEPSt13_Rb_tree_nodeIS1_E:
	pushl	%ebp
	movl	%esp, %ebp
	subl	$24, %esp
.L42:
	cmpl	$0, 12(%ebp)
	je	.L43
	subl	$12, %esp
	pushl	12(%ebp)
	call	_ZNSt8_Rb_treeISt4pairIiiES1_St9_IdentityIS1_ESt4lessIS1_ESaIS1_EE8_S_rightEPSt18_Rb_tree_node_base
	addl	$16, %esp
	subl	$8, %esp
	pushl	%eax
	pushl	8(%ebp)
	call	_ZNSt8_Rb_treeISt4pairIiiES1_St9_IdentityIS1_ESt4lessIS1_ESaIS1_EE8_M_eraseEPSt13_Rb_tree_nodeIS1_E
	addl	$16, %esp
	subl	$12, %esp
	pushl	12(%ebp)
	call	_ZNSt8_Rb_treeISt4pairIiiES1_St9_IdentityIS1_ESt4lessIS1_ESaIS1_EE7_S_leftEPSt18_Rb_tree_node_base
	addl	$16, %esp
	movl	%eax, -12(%ebp)
	subl	$8, %esp
	pushl	12(%ebp)
	pushl	8(%ebp)
	call	_ZNSt8_Rb_treeISt4pairIiiES1_St9_IdentityIS1_ESt4lessIS1_ESaIS1_EE12_M_drop_nodeEPSt13_Rb_tree_nodeIS1_E
	addl	$16, %esp
	movl	-12(%ebp), %eax
	movl	%eax, 12(%ebp)
	jmp	.L42
.L43:
	nop
	leave
	ret
	.size	_ZNSt8_Rb_treeISt4pairIiiES1_St9_IdentityIS1_ESt4lessIS1_ESaIS1_EE8_M_eraseEPSt13_Rb_tree_nodeIS1_E, .-_ZNSt8_Rb_treeISt4pairIiiES1_St9_IdentityIS1_ESt4lessIS1_ESaIS1_EE8_M_eraseEPSt13_Rb_tree_nodeIS1_E
	.section	.text._ZNSt8_Rb_treeISt4pairIiiES1_St9_IdentityIS1_ESt4lessIS1_ESaIS1_EE8_M_beginEv,"axG",@progbits,_ZNSt8_Rb_treeISt4pairIiiES1_St9_IdentityIS1_ESt4lessIS1_ESaIS1_EE8_M_beginEv,comdat
	.align 2
	.weak	_ZNSt8_Rb_treeISt4pairIiiES1_St9_IdentityIS1_ESt4lessIS1_ESaIS1_EE8_M_beginEv
	.type	_ZNSt8_Rb_treeISt4pairIiiES1_St9_IdentityIS1_ESt4lessIS1_ESaIS1_EE8_M_beginEv, @function
_ZNSt8_Rb_treeISt4pairIiiES1_St9_IdentityIS1_ESt4lessIS1_ESaIS1_EE8_M_beginEv:
	pushl	%ebp
	movl	%esp, %ebp
	movl	8(%ebp), %eax
	movl	8(%eax), %eax
	popl	%ebp
	ret
	.size	_ZNSt8_Rb_treeISt4pairIiiES1_St9_IdentityIS1_ESt4lessIS1_ESaIS1_EE8_M_beginEv, .-_ZNSt8_Rb_treeISt4pairIiiES1_St9_IdentityIS1_ESt4lessIS1_ESaIS1_EE8_M_beginEv
	.section	.text._ZNSt8_Rb_treeISt4pairIiiES1_St9_IdentityIS1_ESt4lessIS1_ESaIS1_EE4findERKS1_,"axG",@progbits,_ZNSt8_Rb_treeISt4pairIiiES1_St9_IdentityIS1_ESt4lessIS1_ESaIS1_EE4findERKS1_,comdat
	.align 2
	.weak	_ZNSt8_Rb_treeISt4pairIiiES1_St9_IdentityIS1_ESt4lessIS1_ESaIS1_EE4findERKS1_
	.type	_ZNSt8_Rb_treeISt4pairIiiES1_St9_IdentityIS1_ESt4lessIS1_ESaIS1_EE4findERKS1_, @function
_ZNSt8_Rb_treeISt4pairIiiES1_St9_IdentityIS1_ESt4lessIS1_ESaIS1_EE4findERKS1_:
	pushl	%ebp
	movl	%esp, %ebp
	pushl	%ebx
	subl	$36, %esp
	movl	8(%ebp), %eax
	movl	%eax, -28(%ebp)
	movl	12(%ebp), %eax
	movl	%eax, -32(%ebp)
	movl	16(%ebp), %eax
	movl	%eax, -36(%ebp)
	movl	%gs:20, %eax
	movl	%eax, -12(%ebp)
	xorl	%eax, %eax
	subl	$12, %esp
	pushl	-32(%ebp)
	call	_ZNSt8_Rb_treeISt4pairIiiES1_St9_IdentityIS1_ESt4lessIS1_ESaIS1_EE6_M_endEv
	addl	$16, %esp
	movl	%eax, %ebx
	subl	$12, %esp
	pushl	-32(%ebp)
	call	_ZNSt8_Rb_treeISt4pairIiiES1_St9_IdentityIS1_ESt4lessIS1_ESaIS1_EE8_M_beginEv
	addl	$16, %esp
	movl	%eax, %edx
	leal	-20(%ebp), %eax
	subl	$12, %esp
	pushl	-36(%ebp)
	pushl	%ebx
	pushl	%edx
	pushl	-32(%ebp)
	pushl	%eax
	call	_ZNSt8_Rb_treeISt4pairIiiES1_St9_IdentityIS1_ESt4lessIS1_ESaIS1_EE14_M_lower_boundEPSt13_Rb_tree_nodeIS1_ESA_RKS1_
	addl	$28, %esp
	leal	-16(%ebp), %eax
	subl	$8, %esp
	pushl	-32(%ebp)
	pushl	%eax
	call	_ZNSt8_Rb_treeISt4pairIiiES1_St9_IdentityIS1_ESt4lessIS1_ESaIS1_EE3endEv
	addl	$12, %esp
	movl	$1, %ebx
	subl	$8, %esp
	leal	-16(%ebp), %eax
	pushl	%eax
	leal	-20(%ebp), %eax
	pushl	%eax
	call	_ZNKSt17_Rb_tree_iteratorISt4pairIiiEEeqERKS2_
	addl	$16, %esp
	testb	%al, %al
	jne	.L47
	movl	-20(%ebp), %eax
	subl	$12, %esp
	pushl	%eax
	call	_ZNSt8_Rb_treeISt4pairIiiES1_St9_IdentityIS1_ESt4lessIS1_ESaIS1_EE6_S_keyEPKSt18_Rb_tree_node_base
	addl	$16, %esp
	movl	%eax, %edx
	movl	-32(%ebp), %eax
	subl	$4, %esp
	pushl	%edx
	pushl	-36(%ebp)
	pushl	%eax
	call	_ZNKSt4lessISt4pairIiiEEclERKS1_S4_
	addl	$16, %esp
	testb	%al, %al
	je	.L48
.L47:
	movl	-28(%ebp), %eax
	subl	$8, %esp
	pushl	-32(%ebp)
	pushl	%eax
	call	_ZNSt8_Rb_treeISt4pairIiiES1_St9_IdentityIS1_ESt4lessIS1_ESaIS1_EE3endEv
	addl	$12, %esp
	jmp	.L53
.L48:
	movl	-28(%ebp), %eax
	movl	-20(%ebp), %edx
	movl	%edx, (%eax)
.L53:
	testb	%bl, %bl
	nop
	movl	-28(%ebp), %eax
	movl	-12(%ebp), %ecx
	xorl	%gs:20, %ecx
	je	.L52
	call	__stack_chk_fail
.L52:
	movl	-4(%ebp), %ebx
	leave
	ret	$4
	.size	_ZNSt8_Rb_treeISt4pairIiiES1_St9_IdentityIS1_ESt4lessIS1_ESaIS1_EE4findERKS1_, .-_ZNSt8_Rb_treeISt4pairIiiES1_St9_IdentityIS1_ESt4lessIS1_ESaIS1_EE4findERKS1_
	.section	.text._ZNSt23_Rb_tree_const_iteratorISt4pairIiiEEC2ERKSt17_Rb_tree_iteratorIS1_E,"axG",@progbits,_ZNSt23_Rb_tree_const_iteratorISt4pairIiiEEC5ERKSt17_Rb_tree_iteratorIS1_E,comdat
	.align 2
	.weak	_ZNSt23_Rb_tree_const_iteratorISt4pairIiiEEC2ERKSt17_Rb_tree_iteratorIS1_E
	.type	_ZNSt23_Rb_tree_const_iteratorISt4pairIiiEEC2ERKSt17_Rb_tree_iteratorIS1_E, @function
_ZNSt23_Rb_tree_const_iteratorISt4pairIiiEEC2ERKSt17_Rb_tree_iteratorIS1_E:
	pushl	%ebp
	movl	%esp, %ebp
	movl	12(%ebp), %eax
	movl	(%eax), %edx
	movl	8(%ebp), %eax
	movl	%edx, (%eax)
	nop
	popl	%ebp
	ret
	.size	_ZNSt23_Rb_tree_const_iteratorISt4pairIiiEEC2ERKSt17_Rb_tree_iteratorIS1_E, .-_ZNSt23_Rb_tree_const_iteratorISt4pairIiiEEC2ERKSt17_Rb_tree_iteratorIS1_E
	.weak	_ZNSt23_Rb_tree_const_iteratorISt4pairIiiEEC1ERKSt17_Rb_tree_iteratorIS1_E
	.set	_ZNSt23_Rb_tree_const_iteratorISt4pairIiiEEC1ERKSt17_Rb_tree_iteratorIS1_E,_ZNSt23_Rb_tree_const_iteratorISt4pairIiiEEC2ERKSt17_Rb_tree_iteratorIS1_E
	.section	.text._ZNKSt8_Rb_treeISt4pairIiiES1_St9_IdentityIS1_ESt4lessIS1_ESaIS1_EE3endEv,"axG",@progbits,_ZNKSt8_Rb_treeISt4pairIiiES1_St9_IdentityIS1_ESt4lessIS1_ESaIS1_EE3endEv,comdat
	.align 2
	.weak	_ZNKSt8_Rb_treeISt4pairIiiES1_St9_IdentityIS1_ESt4lessIS1_ESaIS1_EE3endEv
	.type	_ZNKSt8_Rb_treeISt4pairIiiES1_St9_IdentityIS1_ESt4lessIS1_ESaIS1_EE3endEv, @function
_ZNKSt8_Rb_treeISt4pairIiiES1_St9_IdentityIS1_ESt4lessIS1_ESaIS1_EE3endEv:
	pushl	%ebp
	movl	%esp, %ebp
	subl	$8, %esp
	movl	12(%ebp), %eax
	addl	$4, %eax
	subl	$8, %esp
	pushl	%eax
	pushl	8(%ebp)
	call	_ZNSt23_Rb_tree_const_iteratorISt4pairIiiEEC1EPKSt13_Rb_tree_nodeIS1_E
	addl	$16, %esp
	movl	8(%ebp), %eax
	leave
	ret	$4
	.size	_ZNKSt8_Rb_treeISt4pairIiiES1_St9_IdentityIS1_ESt4lessIS1_ESaIS1_EE3endEv, .-_ZNKSt8_Rb_treeISt4pairIiiES1_St9_IdentityIS1_ESt4lessIS1_ESaIS1_EE3endEv
	.section	.text._ZNSt8_Rb_treeISt4pairIiiES1_St9_IdentityIS1_ESt4lessIS1_ESaIS1_EE16_M_insert_uniqueERKS1_,"axG",@progbits,_ZNSt8_Rb_treeISt4pairIiiES1_St9_IdentityIS1_ESt4lessIS1_ESaIS1_EE16_M_insert_uniqueERKS1_,comdat
	.align 2
	.weak	_ZNSt8_Rb_treeISt4pairIiiES1_St9_IdentityIS1_ESt4lessIS1_ESaIS1_EE16_M_insert_uniqueERKS1_
	.type	_ZNSt8_Rb_treeISt4pairIiiES1_St9_IdentityIS1_ESt4lessIS1_ESaIS1_EE16_M_insert_uniqueERKS1_, @function
_ZNSt8_Rb_treeISt4pairIiiES1_St9_IdentityIS1_ESt4lessIS1_ESaIS1_EE16_M_insert_uniqueERKS1_:
	pushl	%ebp
	movl	%esp, %ebp
	pushl	%ebx
	subl	$52, %esp
	movl	8(%ebp), %eax
	movl	%eax, -44(%ebp)
	movl	12(%ebp), %eax
	movl	%eax, -48(%ebp)
	movl	16(%ebp), %eax
	movl	%eax, -52(%ebp)
	movl	%gs:20, %eax
	movl	%eax, -12(%ebp)
	xorl	%eax, %eax
	subl	$8, %esp
	pushl	-52(%ebp)
	leal	-24(%ebp), %eax
	pushl	%eax
	call	_ZNKSt9_IdentityISt4pairIiiEEclERKS1_
	addl	$16, %esp
	movl	%eax, %edx
	leal	-20(%ebp), %eax
	subl	$4, %esp
	pushl	%edx
	pushl	-48(%ebp)
	pushl	%eax
	call	_ZNSt8_Rb_treeISt4pairIiiES1_St9_IdentityIS1_ESt4lessIS1_ESaIS1_EE24_M_get_insert_unique_posERKS1_
	addl	$12, %esp
	movl	-16(%ebp), %eax
	testl	%eax, %eax
	je	.L58
	subl	$8, %esp
	pushl	-48(%ebp)
	leal	-28(%ebp), %eax
	pushl	%eax
	call	_ZNSt8_Rb_treeISt4pairIiiES1_St9_IdentityIS1_ESt4lessIS1_ESaIS1_EE11_Alloc_nodeC1ERS7_
	addl	$16, %esp
	movb	$1, -29(%ebp)
	movl	-16(%ebp), %ecx
	movl	-20(%ebp), %edx
	leal	-24(%ebp), %eax
	subl	$8, %esp
	leal	-28(%ebp), %ebx
	pushl	%ebx
	pushl	-52(%ebp)
	pushl	%ecx
	pushl	%edx
	pushl	-48(%ebp)
	pushl	%eax
	call	_ZNSt8_Rb_treeISt4pairIiiES1_St9_IdentityIS1_ESt4lessIS1_ESaIS1_EE10_M_insert_INS7_11_Alloc_nodeEEESt17_Rb_tree_iteratorIS1_EPSt18_Rb_tree_node_baseSD_RKS1_RT_
	addl	$28, %esp
	subl	$4, %esp
	leal	-29(%ebp), %eax
	pushl	%eax
	leal	-24(%ebp), %eax
	pushl	%eax
	pushl	-44(%ebp)
	call	_ZNSt4pairISt17_Rb_tree_iteratorIS_IiiEEbEC1ERKS2_RKb
	addl	$16, %esp
	jmp	.L57
.L58:
	movb	$0, -28(%ebp)
	movl	-20(%ebp), %eax
	subl	$8, %esp
	pushl	%eax
	leal	-24(%ebp), %eax
	pushl	%eax
	call	_ZNSt17_Rb_tree_iteratorISt4pairIiiEEC1EPSt13_Rb_tree_nodeIS1_E
	addl	$16, %esp
	subl	$4, %esp
	leal	-28(%ebp), %eax
	pushl	%eax
	leal	-24(%ebp), %eax
	pushl	%eax
	pushl	-44(%ebp)
	call	_ZNSt4pairISt17_Rb_tree_iteratorIS_IiiEEbEC1ERKS2_RKb
	addl	$16, %esp
.L57:
	movl	-44(%ebp), %eax
	movl	-12(%ebp), %ecx
	xorl	%gs:20, %ecx
	je	.L61
	call	__stack_chk_fail
.L61:
	movl	-4(%ebp), %ebx
	leave
	ret	$4
	.size	_ZNSt8_Rb_treeISt4pairIiiES1_St9_IdentityIS1_ESt4lessIS1_ESaIS1_EE16_M_insert_uniqueERKS1_, .-_ZNSt8_Rb_treeISt4pairIiiES1_St9_IdentityIS1_ESt4lessIS1_ESaIS1_EE16_M_insert_uniqueERKS1_
	.section	.text._ZNSt4pairISt23_Rb_tree_const_iteratorIS_IiiEEbEC2ERKS2_RKb,"axG",@progbits,_ZNSt4pairISt23_Rb_tree_const_iteratorIS_IiiEEbEC5ERKS2_RKb,comdat
	.align 2
	.weak	_ZNSt4pairISt23_Rb_tree_const_iteratorIS_IiiEEbEC2ERKS2_RKb
	.type	_ZNSt4pairISt23_Rb_tree_const_iteratorIS_IiiEEbEC2ERKS2_RKb, @function
_ZNSt4pairISt23_Rb_tree_const_iteratorIS_IiiEEbEC2ERKS2_RKb:
	pushl	%ebp
	movl	%esp, %ebp
	movl	8(%ebp), %eax
	movl	12(%ebp), %edx
	movl	(%edx), %edx
	movl	%edx, (%eax)
	movl	16(%ebp), %eax
	movzbl	(%eax), %edx
	movl	8(%ebp), %eax
	movb	%dl, 4(%eax)
	nop
	popl	%ebp
	ret
	.size	_ZNSt4pairISt23_Rb_tree_const_iteratorIS_IiiEEbEC2ERKS2_RKb, .-_ZNSt4pairISt23_Rb_tree_const_iteratorIS_IiiEEbEC2ERKS2_RKb
	.weak	_ZNSt4pairISt23_Rb_tree_const_iteratorIS_IiiEEbEC1ERKS2_RKb
	.set	_ZNSt4pairISt23_Rb_tree_const_iteratorIS_IiiEEbEC1ERKS2_RKb,_ZNSt4pairISt23_Rb_tree_const_iteratorIS_IiiEEbEC2ERKS2_RKb
	.section	.text._ZNSt8_Rb_treeISt4pairIiiES1_St9_IdentityIS1_ESt4lessIS1_ESaIS1_EE13_Rb_tree_implIS5_Lb0EEC2Ev,"axG",@progbits,_ZNSt8_Rb_treeISt4pairIiiES1_St9_IdentityIS1_ESt4lessIS1_ESaIS1_EE13_Rb_tree_implIS5_Lb0EEC5Ev,comdat
	.align 2
	.weak	_ZNSt8_Rb_treeISt4pairIiiES1_St9_IdentityIS1_ESt4lessIS1_ESaIS1_EE13_Rb_tree_implIS5_Lb0EEC2Ev
	.type	_ZNSt8_Rb_treeISt4pairIiiES1_St9_IdentityIS1_ESt4lessIS1_ESaIS1_EE13_Rb_tree_implIS5_Lb0EEC2Ev, @function
_ZNSt8_Rb_treeISt4pairIiiES1_St9_IdentityIS1_ESt4lessIS1_ESaIS1_EE13_Rb_tree_implIS5_Lb0EEC2Ev:
	pushl	%ebp
	movl	%esp, %ebp
	subl	$8, %esp
	subl	$12, %esp
	pushl	8(%ebp)
	call	_ZNSaISt13_Rb_tree_nodeISt4pairIiiEEEC2Ev
	addl	$16, %esp
	movl	8(%ebp), %eax
	movl	$0, 4(%eax)
	movl	8(%ebp), %eax
	movl	$0, 8(%eax)
	movl	8(%ebp), %eax
	movl	$0, 12(%eax)
	movl	8(%ebp), %eax
	movl	$0, 16(%eax)
	movl	8(%ebp), %eax
	movl	$0, 20(%eax)
	subl	$12, %esp
	pushl	8(%ebp)
	call	_ZNSt8_Rb_treeISt4pairIiiES1_St9_IdentityIS1_ESt4lessIS1_ESaIS1_EE13_Rb_tree_implIS5_Lb0EE13_M_initializeEv
	addl	$16, %esp
	nop
	leave
	ret
	.size	_ZNSt8_Rb_treeISt4pairIiiES1_St9_IdentityIS1_ESt4lessIS1_ESaIS1_EE13_Rb_tree_implIS5_Lb0EEC2Ev, .-_ZNSt8_Rb_treeISt4pairIiiES1_St9_IdentityIS1_ESt4lessIS1_ESaIS1_EE13_Rb_tree_implIS5_Lb0EEC2Ev
	.weak	_ZNSt8_Rb_treeISt4pairIiiES1_St9_IdentityIS1_ESt4lessIS1_ESaIS1_EE13_Rb_tree_implIS5_Lb0EEC1Ev
	.set	_ZNSt8_Rb_treeISt4pairIiiES1_St9_IdentityIS1_ESt4lessIS1_ESaIS1_EE13_Rb_tree_implIS5_Lb0EEC1Ev,_ZNSt8_Rb_treeISt4pairIiiES1_St9_IdentityIS1_ESt4lessIS1_ESaIS1_EE13_Rb_tree_implIS5_Lb0EEC2Ev
	.section	.text._ZN9__gnu_cxx13new_allocatorISt13_Rb_tree_nodeISt4pairIiiEEED2Ev,"axG",@progbits,_ZN9__gnu_cxx13new_allocatorISt13_Rb_tree_nodeISt4pairIiiEEED5Ev,comdat
	.align 2
	.weak	_ZN9__gnu_cxx13new_allocatorISt13_Rb_tree_nodeISt4pairIiiEEED2Ev
	.type	_ZN9__gnu_cxx13new_allocatorISt13_Rb_tree_nodeISt4pairIiiEEED2Ev, @function
_ZN9__gnu_cxx13new_allocatorISt13_Rb_tree_nodeISt4pairIiiEEED2Ev:
	pushl	%ebp
	movl	%esp, %ebp
	nop
	popl	%ebp
	ret
	.size	_ZN9__gnu_cxx13new_allocatorISt13_Rb_tree_nodeISt4pairIiiEEED2Ev, .-_ZN9__gnu_cxx13new_allocatorISt13_Rb_tree_nodeISt4pairIiiEEED2Ev
	.weak	_ZN9__gnu_cxx13new_allocatorISt13_Rb_tree_nodeISt4pairIiiEEED1Ev
	.set	_ZN9__gnu_cxx13new_allocatorISt13_Rb_tree_nodeISt4pairIiiEEED1Ev,_ZN9__gnu_cxx13new_allocatorISt13_Rb_tree_nodeISt4pairIiiEEED2Ev
	.section	.text._ZNSt8_Rb_treeISt4pairIiiES1_St9_IdentityIS1_ESt4lessIS1_ESaIS1_EE8_S_rightEPSt18_Rb_tree_node_base,"axG",@progbits,_ZNSt8_Rb_treeISt4pairIiiES1_St9_IdentityIS1_ESt4lessIS1_ESaIS1_EE8_S_rightEPSt18_Rb_tree_node_base,comdat
	.weak	_ZNSt8_Rb_treeISt4pairIiiES1_St9_IdentityIS1_ESt4lessIS1_ESaIS1_EE8_S_rightEPSt18_Rb_tree_node_base
	.type	_ZNSt8_Rb_treeISt4pairIiiES1_St9_IdentityIS1_ESt4lessIS1_ESaIS1_EE8_S_rightEPSt18_Rb_tree_node_base, @function
_ZNSt8_Rb_treeISt4pairIiiES1_St9_IdentityIS1_ESt4lessIS1_ESaIS1_EE8_S_rightEPSt18_Rb_tree_node_base:
	pushl	%ebp
	movl	%esp, %ebp
	movl	8(%ebp), %eax
	movl	12(%eax), %eax
	popl	%ebp
	ret
	.size	_ZNSt8_Rb_treeISt4pairIiiES1_St9_IdentityIS1_ESt4lessIS1_ESaIS1_EE8_S_rightEPSt18_Rb_tree_node_base, .-_ZNSt8_Rb_treeISt4pairIiiES1_St9_IdentityIS1_ESt4lessIS1_ESaIS1_EE8_S_rightEPSt18_Rb_tree_node_base
	.section	.text._ZNSt8_Rb_treeISt4pairIiiES1_St9_IdentityIS1_ESt4lessIS1_ESaIS1_EE7_S_leftEPSt18_Rb_tree_node_base,"axG",@progbits,_ZNSt8_Rb_treeISt4pairIiiES1_St9_IdentityIS1_ESt4lessIS1_ESaIS1_EE7_S_leftEPSt18_Rb_tree_node_base,comdat
	.weak	_ZNSt8_Rb_treeISt4pairIiiES1_St9_IdentityIS1_ESt4lessIS1_ESaIS1_EE7_S_leftEPSt18_Rb_tree_node_base
	.type	_ZNSt8_Rb_treeISt4pairIiiES1_St9_IdentityIS1_ESt4lessIS1_ESaIS1_EE7_S_leftEPSt18_Rb_tree_node_base, @function
_ZNSt8_Rb_treeISt4pairIiiES1_St9_IdentityIS1_ESt4lessIS1_ESaIS1_EE7_S_leftEPSt18_Rb_tree_node_base:
	pushl	%ebp
	movl	%esp, %ebp
	movl	8(%ebp), %eax
	movl	8(%eax), %eax
	popl	%ebp
	ret
	.size	_ZNSt8_Rb_treeISt4pairIiiES1_St9_IdentityIS1_ESt4lessIS1_ESaIS1_EE7_S_leftEPSt18_Rb_tree_node_base, .-_ZNSt8_Rb_treeISt4pairIiiES1_St9_IdentityIS1_ESt4lessIS1_ESaIS1_EE7_S_leftEPSt18_Rb_tree_node_base
	.section	.text._ZNSt8_Rb_treeISt4pairIiiES1_St9_IdentityIS1_ESt4lessIS1_ESaIS1_EE12_M_drop_nodeEPSt13_Rb_tree_nodeIS1_E,"axG",@progbits,_ZNSt8_Rb_treeISt4pairIiiES1_St9_IdentityIS1_ESt4lessIS1_ESaIS1_EE12_M_drop_nodeEPSt13_Rb_tree_nodeIS1_E,comdat
	.align 2
	.weak	_ZNSt8_Rb_treeISt4pairIiiES1_St9_IdentityIS1_ESt4lessIS1_ESaIS1_EE12_M_drop_nodeEPSt13_Rb_tree_nodeIS1_E
	.type	_ZNSt8_Rb_treeISt4pairIiiES1_St9_IdentityIS1_ESt4lessIS1_ESaIS1_EE12_M_drop_nodeEPSt13_Rb_tree_nodeIS1_E, @function
_ZNSt8_Rb_treeISt4pairIiiES1_St9_IdentityIS1_ESt4lessIS1_ESaIS1_EE12_M_drop_nodeEPSt13_Rb_tree_nodeIS1_E:
	pushl	%ebp
	movl	%esp, %ebp
	subl	$8, %esp
	subl	$8, %esp
	pushl	12(%ebp)
	pushl	8(%ebp)
	call	_ZNSt8_Rb_treeISt4pairIiiES1_St9_IdentityIS1_ESt4lessIS1_ESaIS1_EE15_M_destroy_nodeEPSt13_Rb_tree_nodeIS1_E
	addl	$16, %esp
	subl	$8, %esp
	pushl	12(%ebp)
	pushl	8(%ebp)
	call	_ZNSt8_Rb_treeISt4pairIiiES1_St9_IdentityIS1_ESt4lessIS1_ESaIS1_EE11_M_put_nodeEPSt13_Rb_tree_nodeIS1_E
	addl	$16, %esp
	nop
	leave
	ret
	.size	_ZNSt8_Rb_treeISt4pairIiiES1_St9_IdentityIS1_ESt4lessIS1_ESaIS1_EE12_M_drop_nodeEPSt13_Rb_tree_nodeIS1_E, .-_ZNSt8_Rb_treeISt4pairIiiES1_St9_IdentityIS1_ESt4lessIS1_ESaIS1_EE12_M_drop_nodeEPSt13_Rb_tree_nodeIS1_E
	.section	.text._ZNSt8_Rb_treeISt4pairIiiES1_St9_IdentityIS1_ESt4lessIS1_ESaIS1_EE6_M_endEv,"axG",@progbits,_ZNSt8_Rb_treeISt4pairIiiES1_St9_IdentityIS1_ESt4lessIS1_ESaIS1_EE6_M_endEv,comdat
	.align 2
	.weak	_ZNSt8_Rb_treeISt4pairIiiES1_St9_IdentityIS1_ESt4lessIS1_ESaIS1_EE6_M_endEv
	.type	_ZNSt8_Rb_treeISt4pairIiiES1_St9_IdentityIS1_ESt4lessIS1_ESaIS1_EE6_M_endEv, @function
_ZNSt8_Rb_treeISt4pairIiiES1_St9_IdentityIS1_ESt4lessIS1_ESaIS1_EE6_M_endEv:
	pushl	%ebp
	movl	%esp, %ebp
	movl	8(%ebp), %eax
	addl	$4, %eax
	popl	%ebp
	ret
	.size	_ZNSt8_Rb_treeISt4pairIiiES1_St9_IdentityIS1_ESt4lessIS1_ESaIS1_EE6_M_endEv, .-_ZNSt8_Rb_treeISt4pairIiiES1_St9_IdentityIS1_ESt4lessIS1_ESaIS1_EE6_M_endEv
	.section	.text._ZNSt8_Rb_treeISt4pairIiiES1_St9_IdentityIS1_ESt4lessIS1_ESaIS1_EE14_M_lower_boundEPSt13_Rb_tree_nodeIS1_ESA_RKS1_,"axG",@progbits,_ZNSt8_Rb_treeISt4pairIiiES1_St9_IdentityIS1_ESt4lessIS1_ESaIS1_EE14_M_lower_boundEPSt13_Rb_tree_nodeIS1_ESA_RKS1_,comdat
	.align 2
	.weak	_ZNSt8_Rb_treeISt4pairIiiES1_St9_IdentityIS1_ESt4lessIS1_ESaIS1_EE14_M_lower_boundEPSt13_Rb_tree_nodeIS1_ESA_RKS1_
	.type	_ZNSt8_Rb_treeISt4pairIiiES1_St9_IdentityIS1_ESt4lessIS1_ESaIS1_EE14_M_lower_boundEPSt13_Rb_tree_nodeIS1_ESA_RKS1_, @function
_ZNSt8_Rb_treeISt4pairIiiES1_St9_IdentityIS1_ESt4lessIS1_ESaIS1_EE14_M_lower_boundEPSt13_Rb_tree_nodeIS1_ESA_RKS1_:
	pushl	%ebp
	movl	%esp, %ebp
	subl	$8, %esp
.L76:
	cmpl	$0, 16(%ebp)
	je	.L73
	subl	$12, %esp
	pushl	16(%ebp)
	call	_ZNSt8_Rb_treeISt4pairIiiES1_St9_IdentityIS1_ESt4lessIS1_ESaIS1_EE6_S_keyEPKSt13_Rb_tree_nodeIS1_E
	addl	$16, %esp
	movl	%eax, %edx
	movl	12(%ebp), %eax
	subl	$4, %esp
	pushl	24(%ebp)
	pushl	%edx
	pushl	%eax
	call	_ZNKSt4lessISt4pairIiiEEclERKS1_S4_
	addl	$16, %esp
	xorl	$1, %eax
	testb	%al, %al
	je	.L74
	movl	16(%ebp), %eax
	movl	%eax, 20(%ebp)
	subl	$12, %esp
	pushl	16(%ebp)
	call	_ZNSt8_Rb_treeISt4pairIiiES1_St9_IdentityIS1_ESt4lessIS1_ESaIS1_EE7_S_leftEPSt18_Rb_tree_node_base
	addl	$16, %esp
	movl	%eax, 16(%ebp)
	jmp	.L76
.L74:
	subl	$12, %esp
	pushl	16(%ebp)
	call	_ZNSt8_Rb_treeISt4pairIiiES1_St9_IdentityIS1_ESt4lessIS1_ESaIS1_EE8_S_rightEPSt18_Rb_tree_node_base
	addl	$16, %esp
	movl	%eax, 16(%ebp)
	jmp	.L76
.L73:
	subl	$8, %esp
	pushl	20(%ebp)
	pushl	8(%ebp)
	call	_ZNSt17_Rb_tree_iteratorISt4pairIiiEEC1EPSt13_Rb_tree_nodeIS1_E
	addl	$16, %esp
	movl	8(%ebp), %eax
	leave
	ret	$4
	.size	_ZNSt8_Rb_treeISt4pairIiiES1_St9_IdentityIS1_ESt4lessIS1_ESaIS1_EE14_M_lower_boundEPSt13_Rb_tree_nodeIS1_ESA_RKS1_, .-_ZNSt8_Rb_treeISt4pairIiiES1_St9_IdentityIS1_ESt4lessIS1_ESaIS1_EE14_M_lower_boundEPSt13_Rb_tree_nodeIS1_ESA_RKS1_
	.section	.text._ZNSt8_Rb_treeISt4pairIiiES1_St9_IdentityIS1_ESt4lessIS1_ESaIS1_EE3endEv,"axG",@progbits,_ZNSt8_Rb_treeISt4pairIiiES1_St9_IdentityIS1_ESt4lessIS1_ESaIS1_EE3endEv,comdat
	.align 2
	.weak	_ZNSt8_Rb_treeISt4pairIiiES1_St9_IdentityIS1_ESt4lessIS1_ESaIS1_EE3endEv
	.type	_ZNSt8_Rb_treeISt4pairIiiES1_St9_IdentityIS1_ESt4lessIS1_ESaIS1_EE3endEv, @function
_ZNSt8_Rb_treeISt4pairIiiES1_St9_IdentityIS1_ESt4lessIS1_ESaIS1_EE3endEv:
	pushl	%ebp
	movl	%esp, %ebp
	subl	$8, %esp
	movl	12(%ebp), %eax
	addl	$4, %eax
	subl	$8, %esp
	pushl	%eax
	pushl	8(%ebp)
	call	_ZNSt17_Rb_tree_iteratorISt4pairIiiEEC1EPSt13_Rb_tree_nodeIS1_E
	addl	$16, %esp
	movl	8(%ebp), %eax
	leave
	ret	$4
	.size	_ZNSt8_Rb_treeISt4pairIiiES1_St9_IdentityIS1_ESt4lessIS1_ESaIS1_EE3endEv, .-_ZNSt8_Rb_treeISt4pairIiiES1_St9_IdentityIS1_ESt4lessIS1_ESaIS1_EE3endEv
	.section	.text._ZNKSt17_Rb_tree_iteratorISt4pairIiiEEeqERKS2_,"axG",@progbits,_ZNKSt17_Rb_tree_iteratorISt4pairIiiEEeqERKS2_,comdat
	.align 2
	.weak	_ZNKSt17_Rb_tree_iteratorISt4pairIiiEEeqERKS2_
	.type	_ZNKSt17_Rb_tree_iteratorISt4pairIiiEEeqERKS2_, @function
_ZNKSt17_Rb_tree_iteratorISt4pairIiiEEeqERKS2_:
	pushl	%ebp
	movl	%esp, %ebp
	movl	8(%ebp), %eax
	movl	(%eax), %edx
	movl	12(%ebp), %eax
	movl	(%eax), %eax
	cmpl	%eax, %edx
	sete	%al
	popl	%ebp
	ret
	.size	_ZNKSt17_Rb_tree_iteratorISt4pairIiiEEeqERKS2_, .-_ZNKSt17_Rb_tree_iteratorISt4pairIiiEEeqERKS2_
	.section	.text._ZNSt8_Rb_treeISt4pairIiiES1_St9_IdentityIS1_ESt4lessIS1_ESaIS1_EE6_S_keyEPKSt18_Rb_tree_node_base,"axG",@progbits,_ZNSt8_Rb_treeISt4pairIiiES1_St9_IdentityIS1_ESt4lessIS1_ESaIS1_EE6_S_keyEPKSt18_Rb_tree_node_base,comdat
	.weak	_ZNSt8_Rb_treeISt4pairIiiES1_St9_IdentityIS1_ESt4lessIS1_ESaIS1_EE6_S_keyEPKSt18_Rb_tree_node_base
	.type	_ZNSt8_Rb_treeISt4pairIiiES1_St9_IdentityIS1_ESt4lessIS1_ESaIS1_EE6_S_keyEPKSt18_Rb_tree_node_base, @function
_ZNSt8_Rb_treeISt4pairIiiES1_St9_IdentityIS1_ESt4lessIS1_ESaIS1_EE6_S_keyEPKSt18_Rb_tree_node_base:
	pushl	%ebp
	movl	%esp, %ebp
	subl	$40, %esp
	movl	8(%ebp), %eax
	movl	%eax, -28(%ebp)
	movl	%gs:20, %eax
	movl	%eax, -12(%ebp)
	xorl	%eax, %eax
	subl	$12, %esp
	pushl	-28(%ebp)
	call	_ZNSt8_Rb_treeISt4pairIiiES1_St9_IdentityIS1_ESt4lessIS1_ESaIS1_EE8_S_valueEPKSt18_Rb_tree_node_base
	addl	$16, %esp
	subl	$8, %esp
	pushl	%eax
	leal	-13(%ebp), %eax
	pushl	%eax
	call	_ZNKSt9_IdentityISt4pairIiiEEclERKS1_
	addl	$16, %esp
	movl	-12(%ebp), %edx
	xorl	%gs:20, %edx
	je	.L84
	call	__stack_chk_fail
.L84:
	leave
	ret
	.size	_ZNSt8_Rb_treeISt4pairIiiES1_St9_IdentityIS1_ESt4lessIS1_ESaIS1_EE6_S_keyEPKSt18_Rb_tree_node_base, .-_ZNSt8_Rb_treeISt4pairIiiES1_St9_IdentityIS1_ESt4lessIS1_ESaIS1_EE6_S_keyEPKSt18_Rb_tree_node_base
	.section	.text._ZNKSt4lessISt4pairIiiEEclERKS1_S4_,"axG",@progbits,_ZNKSt4lessISt4pairIiiEEclERKS1_S4_,comdat
	.align 2
	.weak	_ZNKSt4lessISt4pairIiiEEclERKS1_S4_
	.type	_ZNKSt4lessISt4pairIiiEEclERKS1_S4_, @function
_ZNKSt4lessISt4pairIiiEEclERKS1_S4_:
	pushl	%ebp
	movl	%esp, %ebp
	subl	$8, %esp
	subl	$8, %esp
	pushl	16(%ebp)
	pushl	12(%ebp)
	call	_ZStltIiiEbRKSt4pairIT_T0_ES5_
	addl	$16, %esp
	leave
	ret
	.size	_ZNKSt4lessISt4pairIiiEEclERKS1_S4_, .-_ZNKSt4lessISt4pairIiiEEclERKS1_S4_
	.section	.text._ZNSt23_Rb_tree_const_iteratorISt4pairIiiEEC2EPKSt13_Rb_tree_nodeIS1_E,"axG",@progbits,_ZNSt23_Rb_tree_const_iteratorISt4pairIiiEEC5EPKSt13_Rb_tree_nodeIS1_E,comdat
	.align 2
	.weak	_ZNSt23_Rb_tree_const_iteratorISt4pairIiiEEC2EPKSt13_Rb_tree_nodeIS1_E
	.type	_ZNSt23_Rb_tree_const_iteratorISt4pairIiiEEC2EPKSt13_Rb_tree_nodeIS1_E, @function
_ZNSt23_Rb_tree_const_iteratorISt4pairIiiEEC2EPKSt13_Rb_tree_nodeIS1_E:
	pushl	%ebp
	movl	%esp, %ebp
	movl	8(%ebp), %eax
	movl	12(%ebp), %edx
	movl	%edx, (%eax)
	nop
	popl	%ebp
	ret
	.size	_ZNSt23_Rb_tree_const_iteratorISt4pairIiiEEC2EPKSt13_Rb_tree_nodeIS1_E, .-_ZNSt23_Rb_tree_const_iteratorISt4pairIiiEEC2EPKSt13_Rb_tree_nodeIS1_E
	.weak	_ZNSt23_Rb_tree_const_iteratorISt4pairIiiEEC1EPKSt13_Rb_tree_nodeIS1_E
	.set	_ZNSt23_Rb_tree_const_iteratorISt4pairIiiEEC1EPKSt13_Rb_tree_nodeIS1_E,_ZNSt23_Rb_tree_const_iteratorISt4pairIiiEEC2EPKSt13_Rb_tree_nodeIS1_E
	.section	.text._ZNSt8_Rb_treeISt4pairIiiES1_St9_IdentityIS1_ESt4lessIS1_ESaIS1_EE24_M_get_insert_unique_posERKS1_,"axG",@progbits,_ZNSt8_Rb_treeISt4pairIiiES1_St9_IdentityIS1_ESt4lessIS1_ESaIS1_EE24_M_get_insert_unique_posERKS1_,comdat
	.align 2
	.weak	_ZNSt8_Rb_treeISt4pairIiiES1_St9_IdentityIS1_ESt4lessIS1_ESaIS1_EE24_M_get_insert_unique_posERKS1_
	.type	_ZNSt8_Rb_treeISt4pairIiiES1_St9_IdentityIS1_ESt4lessIS1_ESaIS1_EE24_M_get_insert_unique_posERKS1_, @function
_ZNSt8_Rb_treeISt4pairIiiES1_St9_IdentityIS1_ESt4lessIS1_ESaIS1_EE24_M_get_insert_unique_posERKS1_:
	pushl	%ebp
	movl	%esp, %ebp
	subl	$56, %esp
	movl	8(%ebp), %eax
	movl	%eax, -44(%ebp)
	movl	12(%ebp), %eax
	movl	%eax, -48(%ebp)
	movl	16(%ebp), %eax
	movl	%eax, -52(%ebp)
	movl	%gs:20, %eax
	movl	%eax, -12(%ebp)
	xorl	%eax, %eax
	subl	$12, %esp
	pushl	-48(%ebp)
	call	_ZNSt8_Rb_treeISt4pairIiiES1_St9_IdentityIS1_ESt4lessIS1_ESaIS1_EE8_M_beginEv
	addl	$16, %esp
	movl	%eax, -20(%ebp)
	subl	$12, %esp
	pushl	-48(%ebp)
	call	_ZNSt8_Rb_treeISt4pairIiiES1_St9_IdentityIS1_ESt4lessIS1_ESaIS1_EE6_M_endEv
	addl	$16, %esp
	movl	%eax, -16(%ebp)
	movb	$1, -33(%ebp)
.L92:
	cmpl	$0, -20(%ebp)
	je	.L89
	movl	-20(%ebp), %eax
	movl	%eax, -16(%ebp)
	subl	$12, %esp
	pushl	-20(%ebp)
	call	_ZNSt8_Rb_treeISt4pairIiiES1_St9_IdentityIS1_ESt4lessIS1_ESaIS1_EE6_S_keyEPKSt13_Rb_tree_nodeIS1_E
	addl	$16, %esp
	movl	%eax, %edx
	movl	-48(%ebp), %eax
	subl	$4, %esp
	pushl	%edx
	pushl	-52(%ebp)
	pushl	%eax
	call	_ZNKSt4lessISt4pairIiiEEclERKS1_S4_
	addl	$16, %esp
	movb	%al, -33(%ebp)
	cmpb	$0, -33(%ebp)
	je	.L90
	subl	$12, %esp
	pushl	-20(%ebp)
	call	_ZNSt8_Rb_treeISt4pairIiiES1_St9_IdentityIS1_ESt4lessIS1_ESaIS1_EE7_S_leftEPSt18_Rb_tree_node_base
	addl	$16, %esp
	jmp	.L91
.L90:
	subl	$12, %esp
	pushl	-20(%ebp)
	call	_ZNSt8_Rb_treeISt4pairIiiES1_St9_IdentityIS1_ESt4lessIS1_ESaIS1_EE8_S_rightEPSt18_Rb_tree_node_base
	addl	$16, %esp
.L91:
	movl	%eax, -20(%ebp)
	jmp	.L92
.L89:
	subl	$8, %esp
	pushl	-16(%ebp)
	leal	-32(%ebp), %eax
	pushl	%eax
	call	_ZNSt17_Rb_tree_iteratorISt4pairIiiEEC1EPSt13_Rb_tree_nodeIS1_E
	addl	$16, %esp
	cmpb	$0, -33(%ebp)
	je	.L93
	leal	-24(%ebp), %eax
	subl	$8, %esp
	pushl	-48(%ebp)
	pushl	%eax
	call	_ZNSt8_Rb_treeISt4pairIiiES1_St9_IdentityIS1_ESt4lessIS1_ESaIS1_EE5beginEv
	addl	$12, %esp
	subl	$8, %esp
	leal	-24(%ebp), %eax
	pushl	%eax
	leal	-32(%ebp), %eax
	pushl	%eax
	call	_ZNKSt17_Rb_tree_iteratorISt4pairIiiEEeqERKS2_
	addl	$16, %esp
	testb	%al, %al
	je	.L94
	movl	-16(%ebp), %eax
	movl	%eax, -24(%ebp)
	movl	-20(%ebp), %eax
	movl	%eax, -28(%ebp)
	subl	$4, %esp
	leal	-24(%ebp), %eax
	pushl	%eax
	leal	-28(%ebp), %eax
	pushl	%eax
	pushl	-44(%ebp)
	call	_ZNSt4pairIPSt18_Rb_tree_node_baseS1_EC1ERKS1_S4_
	addl	$16, %esp
	jmp	.L88
.L94:
	subl	$12, %esp
	leal	-32(%ebp), %eax
	pushl	%eax
	call	_ZNSt17_Rb_tree_iteratorISt4pairIiiEEmmEv
	addl	$16, %esp
.L93:
	movl	-32(%ebp), %eax
	subl	$12, %esp
	pushl	%eax
	call	_ZNSt8_Rb_treeISt4pairIiiES1_St9_IdentityIS1_ESt4lessIS1_ESaIS1_EE6_S_keyEPKSt18_Rb_tree_node_base
	addl	$16, %esp
	movl	%eax, %edx
	movl	-48(%ebp), %eax
	subl	$4, %esp
	pushl	-52(%ebp)
	pushl	%edx
	pushl	%eax
	call	_ZNKSt4lessISt4pairIiiEEclERKS1_S4_
	addl	$16, %esp
	testb	%al, %al
	je	.L96
	movl	-16(%ebp), %eax
	movl	%eax, -24(%ebp)
	movl	-20(%ebp), %eax
	movl	%eax, -28(%ebp)
	subl	$4, %esp
	leal	-24(%ebp), %eax
	pushl	%eax
	leal	-28(%ebp), %eax
	pushl	%eax
	pushl	-44(%ebp)
	call	_ZNSt4pairIPSt18_Rb_tree_node_baseS1_EC1ERKS1_S4_
	addl	$16, %esp
	jmp	.L88
.L96:
	movl	$0, -24(%ebp)
	subl	$4, %esp
	leal	-24(%ebp), %eax
	pushl	%eax
	leal	-32(%ebp), %eax
	pushl	%eax
	pushl	-44(%ebp)
	call	_ZNSt4pairIPSt18_Rb_tree_node_baseS1_EC1ERKS1_S4_
	addl	$16, %esp
.L88:
	movl	-44(%ebp), %eax
	movl	-12(%ebp), %ecx
	xorl	%gs:20, %ecx
	je	.L98
	call	__stack_chk_fail
.L98:
	leave
	ret	$4
	.size	_ZNSt8_Rb_treeISt4pairIiiES1_St9_IdentityIS1_ESt4lessIS1_ESaIS1_EE24_M_get_insert_unique_posERKS1_, .-_ZNSt8_Rb_treeISt4pairIiiES1_St9_IdentityIS1_ESt4lessIS1_ESaIS1_EE24_M_get_insert_unique_posERKS1_
	.section	.text._ZNKSt9_IdentityISt4pairIiiEEclERKS1_,"axG",@progbits,_ZNKSt9_IdentityISt4pairIiiEEclERKS1_,comdat
	.align 2
	.weak	_ZNKSt9_IdentityISt4pairIiiEEclERKS1_
	.type	_ZNKSt9_IdentityISt4pairIiiEEclERKS1_, @function
_ZNKSt9_IdentityISt4pairIiiEEclERKS1_:
	pushl	%ebp
	movl	%esp, %ebp
	movl	12(%ebp), %eax
	popl	%ebp
	ret
	.size	_ZNKSt9_IdentityISt4pairIiiEEclERKS1_, .-_ZNKSt9_IdentityISt4pairIiiEEclERKS1_
	.section	.text._ZNSt8_Rb_treeISt4pairIiiES1_St9_IdentityIS1_ESt4lessIS1_ESaIS1_EE11_Alloc_nodeC2ERS7_,"axG",@progbits,_ZNSt8_Rb_treeISt4pairIiiES1_St9_IdentityIS1_ESt4lessIS1_ESaIS1_EE11_Alloc_nodeC5ERS7_,comdat
	.align 2
	.weak	_ZNSt8_Rb_treeISt4pairIiiES1_St9_IdentityIS1_ESt4lessIS1_ESaIS1_EE11_Alloc_nodeC2ERS7_
	.type	_ZNSt8_Rb_treeISt4pairIiiES1_St9_IdentityIS1_ESt4lessIS1_ESaIS1_EE11_Alloc_nodeC2ERS7_, @function
_ZNSt8_Rb_treeISt4pairIiiES1_St9_IdentityIS1_ESt4lessIS1_ESaIS1_EE11_Alloc_nodeC2ERS7_:
	pushl	%ebp
	movl	%esp, %ebp
	movl	8(%ebp), %eax
	movl	12(%ebp), %edx
	movl	%edx, (%eax)
	nop
	popl	%ebp
	ret
	.size	_ZNSt8_Rb_treeISt4pairIiiES1_St9_IdentityIS1_ESt4lessIS1_ESaIS1_EE11_Alloc_nodeC2ERS7_, .-_ZNSt8_Rb_treeISt4pairIiiES1_St9_IdentityIS1_ESt4lessIS1_ESaIS1_EE11_Alloc_nodeC2ERS7_
	.weak	_ZNSt8_Rb_treeISt4pairIiiES1_St9_IdentityIS1_ESt4lessIS1_ESaIS1_EE11_Alloc_nodeC1ERS7_
	.set	_ZNSt8_Rb_treeISt4pairIiiES1_St9_IdentityIS1_ESt4lessIS1_ESaIS1_EE11_Alloc_nodeC1ERS7_,_ZNSt8_Rb_treeISt4pairIiiES1_St9_IdentityIS1_ESt4lessIS1_ESaIS1_EE11_Alloc_nodeC2ERS7_
	.section	.text._ZNSt8_Rb_treeISt4pairIiiES1_St9_IdentityIS1_ESt4lessIS1_ESaIS1_EE10_M_insert_INS7_11_Alloc_nodeEEESt17_Rb_tree_iteratorIS1_EPSt18_Rb_tree_node_baseSD_RKS1_RT_,"axG",@progbits,_ZNSt8_Rb_treeISt4pairIiiES1_St9_IdentityIS1_ESt4lessIS1_ESaIS1_EE10_M_insert_INS7_11_Alloc_nodeEEESt17_Rb_tree_iteratorIS1_EPSt18_Rb_tree_node_baseSD_RKS1_RT_,comdat
	.align 2
	.weak	_ZNSt8_Rb_treeISt4pairIiiES1_St9_IdentityIS1_ESt4lessIS1_ESaIS1_EE10_M_insert_INS7_11_Alloc_nodeEEESt17_Rb_tree_iteratorIS1_EPSt18_Rb_tree_node_baseSD_RKS1_RT_
	.type	_ZNSt8_Rb_treeISt4pairIiiES1_St9_IdentityIS1_ESt4lessIS1_ESaIS1_EE10_M_insert_INS7_11_Alloc_nodeEEESt17_Rb_tree_iteratorIS1_EPSt18_Rb_tree_node_baseSD_RKS1_RT_, @function
_ZNSt8_Rb_treeISt4pairIiiES1_St9_IdentityIS1_ESt4lessIS1_ESaIS1_EE10_M_insert_INS7_11_Alloc_nodeEEESt17_Rb_tree_iteratorIS1_EPSt18_Rb_tree_node_baseSD_RKS1_RT_:
	pushl	%ebp
	movl	%esp, %ebp
	pushl	%esi
	pushl	%ebx
	subl	$48, %esp
	movl	8(%ebp), %eax
	movl	%eax, -28(%ebp)
	movl	12(%ebp), %eax
	movl	%eax, -32(%ebp)
	movl	16(%ebp), %eax
	movl	%eax, -36(%ebp)
	movl	20(%ebp), %eax
	movl	%eax, -40(%ebp)
	movl	24(%ebp), %eax
	movl	%eax, -44(%ebp)
	movl	28(%ebp), %eax
	movl	%eax, -48(%ebp)
	movl	%gs:20, %eax
	movl	%eax, -12(%ebp)
	xorl	%eax, %eax
	movl	$0, %ebx
	cmpl	$0, -36(%ebp)
	jne	.L103
	subl	$12, %esp
	pushl	-32(%ebp)
	call	_ZNSt8_Rb_treeISt4pairIiiES1_St9_IdentityIS1_ESt4lessIS1_ESaIS1_EE6_M_endEv
	addl	$16, %esp
	cmpl	-40(%ebp), %eax
	je	.L103
	subl	$12, %esp
	pushl	-40(%ebp)
	call	_ZNSt8_Rb_treeISt4pairIiiES1_St9_IdentityIS1_ESt4lessIS1_ESaIS1_EE6_S_keyEPKSt18_Rb_tree_node_base
	addl	$16, %esp
	movl	%eax, %esi
	movl	$1, %ebx
	subl	$8, %esp
	pushl	-44(%ebp)
	leal	-18(%ebp), %eax
	pushl	%eax
	call	_ZNKSt9_IdentityISt4pairIiiEEclERKS1_
	addl	$16, %esp
	movl	%eax, %edx
	movl	-32(%ebp), %eax
	subl	$4, %esp
	pushl	%esi
	pushl	%edx
	pushl	%eax
	call	_ZNKSt4lessISt4pairIiiEEclERKS1_S4_
	addl	$16, %esp
	testb	%al, %al
	je	.L104
.L103:
	movl	$1, %eax
	jmp	.L105
.L104:
	movl	$0, %eax
.L105:
	movb	%al, -17(%ebp)
	testb	%bl, %bl
	nop
	subl	$8, %esp
	pushl	-44(%ebp)
	pushl	-48(%ebp)
	call	_ZNKSt8_Rb_treeISt4pairIiiES1_St9_IdentityIS1_ESt4lessIS1_ESaIS1_EE11_Alloc_nodeclIS1_EEPSt13_Rb_tree_nodeIS1_ERKT_
	addl	$16, %esp
	movl	%eax, -16(%ebp)
	movl	-32(%ebp), %eax
	leal	4(%eax), %edx
	movzbl	-17(%ebp), %eax
	pushl	%edx
	pushl	-40(%ebp)
	pushl	-16(%ebp)
	pushl	%eax
	call	_ZSt29_Rb_tree_insert_and_rebalancebPSt18_Rb_tree_node_baseS0_RS_
	addl	$16, %esp
	movl	-32(%ebp), %eax
	movl	20(%eax), %eax
	leal	1(%eax), %edx
	movl	-32(%ebp), %eax
	movl	%edx, 20(%eax)
	subl	$8, %esp
	pushl	-16(%ebp)
	pushl	-28(%ebp)
	call	_ZNSt17_Rb_tree_iteratorISt4pairIiiEEC1EPSt13_Rb_tree_nodeIS1_E
	addl	$16, %esp
	movl	-28(%ebp), %eax
	movl	-12(%ebp), %ecx
	xorl	%gs:20, %ecx
	je	.L108
	call	__stack_chk_fail
.L108:
	leal	-8(%ebp), %esp
	popl	%ebx
	popl	%esi
	popl	%ebp
	ret	$4
	.size	_ZNSt8_Rb_treeISt4pairIiiES1_St9_IdentityIS1_ESt4lessIS1_ESaIS1_EE10_M_insert_INS7_11_Alloc_nodeEEESt17_Rb_tree_iteratorIS1_EPSt18_Rb_tree_node_baseSD_RKS1_RT_, .-_ZNSt8_Rb_treeISt4pairIiiES1_St9_IdentityIS1_ESt4lessIS1_ESaIS1_EE10_M_insert_INS7_11_Alloc_nodeEEESt17_Rb_tree_iteratorIS1_EPSt18_Rb_tree_node_baseSD_RKS1_RT_
	.section	.text._ZNSt4pairISt17_Rb_tree_iteratorIS_IiiEEbEC2ERKS2_RKb,"axG",@progbits,_ZNSt4pairISt17_Rb_tree_iteratorIS_IiiEEbEC5ERKS2_RKb,comdat
	.align 2
	.weak	_ZNSt4pairISt17_Rb_tree_iteratorIS_IiiEEbEC2ERKS2_RKb
	.type	_ZNSt4pairISt17_Rb_tree_iteratorIS_IiiEEbEC2ERKS2_RKb, @function
_ZNSt4pairISt17_Rb_tree_iteratorIS_IiiEEbEC2ERKS2_RKb:
	pushl	%ebp
	movl	%esp, %ebp
	movl	8(%ebp), %eax
	movl	12(%ebp), %edx
	movl	(%edx), %edx
	movl	%edx, (%eax)
	movl	16(%ebp), %eax
	movzbl	(%eax), %edx
	movl	8(%ebp), %eax
	movb	%dl, 4(%eax)
	nop
	popl	%ebp
	ret
	.size	_ZNSt4pairISt17_Rb_tree_iteratorIS_IiiEEbEC2ERKS2_RKb, .-_ZNSt4pairISt17_Rb_tree_iteratorIS_IiiEEbEC2ERKS2_RKb
	.weak	_ZNSt4pairISt17_Rb_tree_iteratorIS_IiiEEbEC1ERKS2_RKb
	.set	_ZNSt4pairISt17_Rb_tree_iteratorIS_IiiEEbEC1ERKS2_RKb,_ZNSt4pairISt17_Rb_tree_iteratorIS_IiiEEbEC2ERKS2_RKb
	.section	.text._ZNSt17_Rb_tree_iteratorISt4pairIiiEEC2EPSt13_Rb_tree_nodeIS1_E,"axG",@progbits,_ZNSt17_Rb_tree_iteratorISt4pairIiiEEC5EPSt13_Rb_tree_nodeIS1_E,comdat
	.align 2
	.weak	_ZNSt17_Rb_tree_iteratorISt4pairIiiEEC2EPSt13_Rb_tree_nodeIS1_E
	.type	_ZNSt17_Rb_tree_iteratorISt4pairIiiEEC2EPSt13_Rb_tree_nodeIS1_E, @function
_ZNSt17_Rb_tree_iteratorISt4pairIiiEEC2EPSt13_Rb_tree_nodeIS1_E:
	pushl	%ebp
	movl	%esp, %ebp
	movl	8(%ebp), %eax
	movl	12(%ebp), %edx
	movl	%edx, (%eax)
	nop
	popl	%ebp
	ret
	.size	_ZNSt17_Rb_tree_iteratorISt4pairIiiEEC2EPSt13_Rb_tree_nodeIS1_E, .-_ZNSt17_Rb_tree_iteratorISt4pairIiiEEC2EPSt13_Rb_tree_nodeIS1_E
	.weak	_ZNSt17_Rb_tree_iteratorISt4pairIiiEEC1EPSt13_Rb_tree_nodeIS1_E
	.set	_ZNSt17_Rb_tree_iteratorISt4pairIiiEEC1EPSt13_Rb_tree_nodeIS1_E,_ZNSt17_Rb_tree_iteratorISt4pairIiiEEC2EPSt13_Rb_tree_nodeIS1_E
	.section	.text._ZNSaISt13_Rb_tree_nodeISt4pairIiiEEEC2Ev,"axG",@progbits,_ZNSaISt13_Rb_tree_nodeISt4pairIiiEEEC5Ev,comdat
	.align 2
	.weak	_ZNSaISt13_Rb_tree_nodeISt4pairIiiEEEC2Ev
	.type	_ZNSaISt13_Rb_tree_nodeISt4pairIiiEEEC2Ev, @function
_ZNSaISt13_Rb_tree_nodeISt4pairIiiEEEC2Ev:
	pushl	%ebp
	movl	%esp, %ebp
	subl	$8, %esp
	subl	$12, %esp
	pushl	8(%ebp)
	call	_ZN9__gnu_cxx13new_allocatorISt13_Rb_tree_nodeISt4pairIiiEEEC2Ev
	addl	$16, %esp
	nop
	leave
	ret
	.size	_ZNSaISt13_Rb_tree_nodeISt4pairIiiEEEC2Ev, .-_ZNSaISt13_Rb_tree_nodeISt4pairIiiEEEC2Ev
	.weak	_ZNSaISt13_Rb_tree_nodeISt4pairIiiEEEC1Ev
	.set	_ZNSaISt13_Rb_tree_nodeISt4pairIiiEEEC1Ev,_ZNSaISt13_Rb_tree_nodeISt4pairIiiEEEC2Ev
	.section	.text._ZNSt8_Rb_treeISt4pairIiiES1_St9_IdentityIS1_ESt4lessIS1_ESaIS1_EE13_Rb_tree_implIS5_Lb0EE13_M_initializeEv,"axG",@progbits,_ZNSt8_Rb_treeISt4pairIiiES1_St9_IdentityIS1_ESt4lessIS1_ESaIS1_EE13_Rb_tree_implIS5_Lb0EE13_M_initializeEv,comdat
	.align 2
	.weak	_ZNSt8_Rb_treeISt4pairIiiES1_St9_IdentityIS1_ESt4lessIS1_ESaIS1_EE13_Rb_tree_implIS5_Lb0EE13_M_initializeEv
	.type	_ZNSt8_Rb_treeISt4pairIiiES1_St9_IdentityIS1_ESt4lessIS1_ESaIS1_EE13_Rb_tree_implIS5_Lb0EE13_M_initializeEv, @function
_ZNSt8_Rb_treeISt4pairIiiES1_St9_IdentityIS1_ESt4lessIS1_ESaIS1_EE13_Rb_tree_implIS5_Lb0EE13_M_initializeEv:
	pushl	%ebp
	movl	%esp, %ebp
	movl	8(%ebp), %eax
	movl	$0, 4(%eax)
	movl	8(%ebp), %eax
	movl	$0, 8(%eax)
	movl	8(%ebp), %eax
	leal	4(%eax), %edx
	movl	8(%ebp), %eax
	movl	%edx, 12(%eax)
	movl	8(%ebp), %eax
	leal	4(%eax), %edx
	movl	8(%ebp), %eax
	movl	%edx, 16(%eax)
	nop
	popl	%ebp
	ret
	.size	_ZNSt8_Rb_treeISt4pairIiiES1_St9_IdentityIS1_ESt4lessIS1_ESaIS1_EE13_Rb_tree_implIS5_Lb0EE13_M_initializeEv, .-_ZNSt8_Rb_treeISt4pairIiiES1_St9_IdentityIS1_ESt4lessIS1_ESaIS1_EE13_Rb_tree_implIS5_Lb0EE13_M_initializeEv
	.section	.text._ZNSt8_Rb_treeISt4pairIiiES1_St9_IdentityIS1_ESt4lessIS1_ESaIS1_EE15_M_destroy_nodeEPSt13_Rb_tree_nodeIS1_E,"axG",@progbits,_ZNSt8_Rb_treeISt4pairIiiES1_St9_IdentityIS1_ESt4lessIS1_ESaIS1_EE15_M_destroy_nodeEPSt13_Rb_tree_nodeIS1_E,comdat
	.align 2
	.weak	_ZNSt8_Rb_treeISt4pairIiiES1_St9_IdentityIS1_ESt4lessIS1_ESaIS1_EE15_M_destroy_nodeEPSt13_Rb_tree_nodeIS1_E
	.type	_ZNSt8_Rb_treeISt4pairIiiES1_St9_IdentityIS1_ESt4lessIS1_ESaIS1_EE15_M_destroy_nodeEPSt13_Rb_tree_nodeIS1_E, @function
_ZNSt8_Rb_treeISt4pairIiiES1_St9_IdentityIS1_ESt4lessIS1_ESaIS1_EE15_M_destroy_nodeEPSt13_Rb_tree_nodeIS1_E:
	pushl	%ebp
	movl	%esp, %ebp
	pushl	%ebx
	subl	$36, %esp
	movl	8(%ebp), %eax
	movl	%eax, -28(%ebp)
	movl	12(%ebp), %eax
	movl	%eax, -32(%ebp)
	movl	%gs:20, %eax
	movl	%eax, -12(%ebp)
	xorl	%eax, %eax
	subl	$12, %esp
	pushl	-32(%ebp)
	call	_ZNSt13_Rb_tree_nodeISt4pairIiiEE9_M_valptrEv
	addl	$16, %esp
	movl	%eax, %ebx
	leal	-13(%ebp), %eax
	subl	$8, %esp
	pushl	-28(%ebp)
	pushl	%eax
	call	_ZNKSt8_Rb_treeISt4pairIiiES1_St9_IdentityIS1_ESt4lessIS1_ESaIS1_EE13get_allocatorEv
	addl	$12, %esp
	subl	$8, %esp
	pushl	%ebx
	leal	-13(%ebp), %eax
	pushl	%eax
	call	_ZN9__gnu_cxx13new_allocatorISt4pairIiiEE7destroyEPS2_
	addl	$16, %esp
	subl	$12, %esp
	leal	-13(%ebp), %eax
	pushl	%eax
	call	_ZNSaISt4pairIiiEED1Ev
	addl	$16, %esp
	nop
	movl	-12(%ebp), %eax
	xorl	%gs:20, %eax
	je	.L114
	call	__stack_chk_fail
.L114:
	movl	-4(%ebp), %ebx
	leave
	ret
	.size	_ZNSt8_Rb_treeISt4pairIiiES1_St9_IdentityIS1_ESt4lessIS1_ESaIS1_EE15_M_destroy_nodeEPSt13_Rb_tree_nodeIS1_E, .-_ZNSt8_Rb_treeISt4pairIiiES1_St9_IdentityIS1_ESt4lessIS1_ESaIS1_EE15_M_destroy_nodeEPSt13_Rb_tree_nodeIS1_E
	.section	.text._ZNSt8_Rb_treeISt4pairIiiES1_St9_IdentityIS1_ESt4lessIS1_ESaIS1_EE11_M_put_nodeEPSt13_Rb_tree_nodeIS1_E,"axG",@progbits,_ZNSt8_Rb_treeISt4pairIiiES1_St9_IdentityIS1_ESt4lessIS1_ESaIS1_EE11_M_put_nodeEPSt13_Rb_tree_nodeIS1_E,comdat
	.align 2
	.weak	_ZNSt8_Rb_treeISt4pairIiiES1_St9_IdentityIS1_ESt4lessIS1_ESaIS1_EE11_M_put_nodeEPSt13_Rb_tree_nodeIS1_E
	.type	_ZNSt8_Rb_treeISt4pairIiiES1_St9_IdentityIS1_ESt4lessIS1_ESaIS1_EE11_M_put_nodeEPSt13_Rb_tree_nodeIS1_E, @function
_ZNSt8_Rb_treeISt4pairIiiES1_St9_IdentityIS1_ESt4lessIS1_ESaIS1_EE11_M_put_nodeEPSt13_Rb_tree_nodeIS1_E:
	pushl	%ebp
	movl	%esp, %ebp
	subl	$8, %esp
	subl	$12, %esp
	pushl	8(%ebp)
	call	_ZNSt8_Rb_treeISt4pairIiiES1_St9_IdentityIS1_ESt4lessIS1_ESaIS1_EE21_M_get_Node_allocatorEv
	addl	$16, %esp
	subl	$4, %esp
	pushl	$1
	pushl	12(%ebp)
	pushl	%eax
	call	_ZN9__gnu_cxx14__alloc_traitsISaISt13_Rb_tree_nodeISt4pairIiiEEEE10deallocateERS5_PS4_j
	addl	$16, %esp
	nop
	leave
	ret
	.size	_ZNSt8_Rb_treeISt4pairIiiES1_St9_IdentityIS1_ESt4lessIS1_ESaIS1_EE11_M_put_nodeEPSt13_Rb_tree_nodeIS1_E, .-_ZNSt8_Rb_treeISt4pairIiiES1_St9_IdentityIS1_ESt4lessIS1_ESaIS1_EE11_M_put_nodeEPSt13_Rb_tree_nodeIS1_E
	.section	.text._ZNSt8_Rb_treeISt4pairIiiES1_St9_IdentityIS1_ESt4lessIS1_ESaIS1_EE6_S_keyEPKSt13_Rb_tree_nodeIS1_E,"axG",@progbits,_ZNSt8_Rb_treeISt4pairIiiES1_St9_IdentityIS1_ESt4lessIS1_ESaIS1_EE6_S_keyEPKSt13_Rb_tree_nodeIS1_E,comdat
	.weak	_ZNSt8_Rb_treeISt4pairIiiES1_St9_IdentityIS1_ESt4lessIS1_ESaIS1_EE6_S_keyEPKSt13_Rb_tree_nodeIS1_E
	.type	_ZNSt8_Rb_treeISt4pairIiiES1_St9_IdentityIS1_ESt4lessIS1_ESaIS1_EE6_S_keyEPKSt13_Rb_tree_nodeIS1_E, @function
_ZNSt8_Rb_treeISt4pairIiiES1_St9_IdentityIS1_ESt4lessIS1_ESaIS1_EE6_S_keyEPKSt13_Rb_tree_nodeIS1_E:
	pushl	%ebp
	movl	%esp, %ebp
	subl	$40, %esp
	movl	8(%ebp), %eax
	movl	%eax, -28(%ebp)
	movl	%gs:20, %eax
	movl	%eax, -12(%ebp)
	xorl	%eax, %eax
	subl	$12, %esp
	pushl	-28(%ebp)
	call	_ZNSt8_Rb_treeISt4pairIiiES1_St9_IdentityIS1_ESt4lessIS1_ESaIS1_EE8_S_valueEPKSt13_Rb_tree_nodeIS1_E
	addl	$16, %esp
	subl	$8, %esp
	pushl	%eax
	leal	-13(%ebp), %eax
	pushl	%eax
	call	_ZNKSt9_IdentityISt4pairIiiEEclERKS1_
	addl	$16, %esp
	movl	-12(%ebp), %edx
	xorl	%gs:20, %edx
	je	.L118
	call	__stack_chk_fail
.L118:
	leave
	ret
	.size	_ZNSt8_Rb_treeISt4pairIiiES1_St9_IdentityIS1_ESt4lessIS1_ESaIS1_EE6_S_keyEPKSt13_Rb_tree_nodeIS1_E, .-_ZNSt8_Rb_treeISt4pairIiiES1_St9_IdentityIS1_ESt4lessIS1_ESaIS1_EE6_S_keyEPKSt13_Rb_tree_nodeIS1_E
	.section	.text._ZNSt8_Rb_treeISt4pairIiiES1_St9_IdentityIS1_ESt4lessIS1_ESaIS1_EE8_S_valueEPKSt18_Rb_tree_node_base,"axG",@progbits,_ZNSt8_Rb_treeISt4pairIiiES1_St9_IdentityIS1_ESt4lessIS1_ESaIS1_EE8_S_valueEPKSt18_Rb_tree_node_base,comdat
	.weak	_ZNSt8_Rb_treeISt4pairIiiES1_St9_IdentityIS1_ESt4lessIS1_ESaIS1_EE8_S_valueEPKSt18_Rb_tree_node_base
	.type	_ZNSt8_Rb_treeISt4pairIiiES1_St9_IdentityIS1_ESt4lessIS1_ESaIS1_EE8_S_valueEPKSt18_Rb_tree_node_base, @function
_ZNSt8_Rb_treeISt4pairIiiES1_St9_IdentityIS1_ESt4lessIS1_ESaIS1_EE8_S_valueEPKSt18_Rb_tree_node_base:
	pushl	%ebp
	movl	%esp, %ebp
	subl	$8, %esp
	subl	$12, %esp
	pushl	8(%ebp)
	call	_ZNKSt13_Rb_tree_nodeISt4pairIiiEE9_M_valptrEv
	addl	$16, %esp
	leave
	ret
	.size	_ZNSt8_Rb_treeISt4pairIiiES1_St9_IdentityIS1_ESt4lessIS1_ESaIS1_EE8_S_valueEPKSt18_Rb_tree_node_base, .-_ZNSt8_Rb_treeISt4pairIiiES1_St9_IdentityIS1_ESt4lessIS1_ESaIS1_EE8_S_valueEPKSt18_Rb_tree_node_base
	.section	.text._ZStltIiiEbRKSt4pairIT_T0_ES5_,"axG",@progbits,_ZStltIiiEbRKSt4pairIT_T0_ES5_,comdat
	.weak	_ZStltIiiEbRKSt4pairIT_T0_ES5_
	.type	_ZStltIiiEbRKSt4pairIT_T0_ES5_, @function
_ZStltIiiEbRKSt4pairIT_T0_ES5_:
	pushl	%ebp
	movl	%esp, %ebp
	movl	8(%ebp), %eax
	movl	(%eax), %edx
	movl	12(%ebp), %eax
	movl	(%eax), %eax
	cmpl	%eax, %edx
	jl	.L122
	movl	12(%ebp), %eax
	movl	(%eax), %edx
	movl	8(%ebp), %eax
	movl	(%eax), %eax
	cmpl	%eax, %edx
	jl	.L123
	movl	8(%ebp), %eax
	movl	4(%eax), %edx
	movl	12(%ebp), %eax
	movl	4(%eax), %eax
	cmpl	%eax, %edx
	jge	.L123
.L122:
	movl	$1, %eax
	jmp	.L125
.L123:
	movl	$0, %eax
.L125:
	popl	%ebp
	ret
	.size	_ZStltIiiEbRKSt4pairIT_T0_ES5_, .-_ZStltIiiEbRKSt4pairIT_T0_ES5_
	.section	.text._ZNSt8_Rb_treeISt4pairIiiES1_St9_IdentityIS1_ESt4lessIS1_ESaIS1_EE5beginEv,"axG",@progbits,_ZNSt8_Rb_treeISt4pairIiiES1_St9_IdentityIS1_ESt4lessIS1_ESaIS1_EE5beginEv,comdat
	.align 2
	.weak	_ZNSt8_Rb_treeISt4pairIiiES1_St9_IdentityIS1_ESt4lessIS1_ESaIS1_EE5beginEv
	.type	_ZNSt8_Rb_treeISt4pairIiiES1_St9_IdentityIS1_ESt4lessIS1_ESaIS1_EE5beginEv, @function
_ZNSt8_Rb_treeISt4pairIiiES1_St9_IdentityIS1_ESt4lessIS1_ESaIS1_EE5beginEv:
	pushl	%ebp
	movl	%esp, %ebp
	subl	$8, %esp
	movl	12(%ebp), %eax
	movl	12(%eax), %eax
	subl	$8, %esp
	pushl	%eax
	pushl	8(%ebp)
	call	_ZNSt17_Rb_tree_iteratorISt4pairIiiEEC1EPSt13_Rb_tree_nodeIS1_E
	addl	$16, %esp
	movl	8(%ebp), %eax
	leave
	ret	$4
	.size	_ZNSt8_Rb_treeISt4pairIiiES1_St9_IdentityIS1_ESt4lessIS1_ESaIS1_EE5beginEv, .-_ZNSt8_Rb_treeISt4pairIiiES1_St9_IdentityIS1_ESt4lessIS1_ESaIS1_EE5beginEv
	.section	.text._ZNSt4pairIPSt18_Rb_tree_node_baseS1_EC2ERKS1_S4_,"axG",@progbits,_ZNSt4pairIPSt18_Rb_tree_node_baseS1_EC5ERKS1_S4_,comdat
	.align 2
	.weak	_ZNSt4pairIPSt18_Rb_tree_node_baseS1_EC2ERKS1_S4_
	.type	_ZNSt4pairIPSt18_Rb_tree_node_baseS1_EC2ERKS1_S4_, @function
_ZNSt4pairIPSt18_Rb_tree_node_baseS1_EC2ERKS1_S4_:
	pushl	%ebp
	movl	%esp, %ebp
	movl	12(%ebp), %eax
	movl	(%eax), %edx
	movl	8(%ebp), %eax
	movl	%edx, (%eax)
	movl	16(%ebp), %eax
	movl	(%eax), %edx
	movl	8(%ebp), %eax
	movl	%edx, 4(%eax)
	nop
	popl	%ebp
	ret
	.size	_ZNSt4pairIPSt18_Rb_tree_node_baseS1_EC2ERKS1_S4_, .-_ZNSt4pairIPSt18_Rb_tree_node_baseS1_EC2ERKS1_S4_
	.weak	_ZNSt4pairIPSt18_Rb_tree_node_baseS1_EC1ERKS1_S4_
	.set	_ZNSt4pairIPSt18_Rb_tree_node_baseS1_EC1ERKS1_S4_,_ZNSt4pairIPSt18_Rb_tree_node_baseS1_EC2ERKS1_S4_
	.section	.text._ZNSt17_Rb_tree_iteratorISt4pairIiiEEmmEv,"axG",@progbits,_ZNSt17_Rb_tree_iteratorISt4pairIiiEEmmEv,comdat
	.align 2
	.weak	_ZNSt17_Rb_tree_iteratorISt4pairIiiEEmmEv
	.type	_ZNSt17_Rb_tree_iteratorISt4pairIiiEEmmEv, @function
_ZNSt17_Rb_tree_iteratorISt4pairIiiEEmmEv:
	pushl	%ebp
	movl	%esp, %ebp
	subl	$8, %esp
	movl	8(%ebp), %eax
	movl	(%eax), %eax
	subl	$12, %esp
	pushl	%eax
	call	_ZSt18_Rb_tree_decrementPSt18_Rb_tree_node_base
	addl	$16, %esp
	movl	%eax, %edx
	movl	8(%ebp), %eax
	movl	%edx, (%eax)
	movl	8(%ebp), %eax
	leave
	ret
	.size	_ZNSt17_Rb_tree_iteratorISt4pairIiiEEmmEv, .-_ZNSt17_Rb_tree_iteratorISt4pairIiiEEmmEv
	.section	.text._ZNKSt8_Rb_treeISt4pairIiiES1_St9_IdentityIS1_ESt4lessIS1_ESaIS1_EE11_Alloc_nodeclIS1_EEPSt13_Rb_tree_nodeIS1_ERKT_,"axG",@progbits,_ZNKSt8_Rb_treeISt4pairIiiES1_St9_IdentityIS1_ESt4lessIS1_ESaIS1_EE11_Alloc_nodeclIS1_EEPSt13_Rb_tree_nodeIS1_ERKT_,comdat
	.align 2
	.weak	_ZNKSt8_Rb_treeISt4pairIiiES1_St9_IdentityIS1_ESt4lessIS1_ESaIS1_EE11_Alloc_nodeclIS1_EEPSt13_Rb_tree_nodeIS1_ERKT_
	.type	_ZNKSt8_Rb_treeISt4pairIiiES1_St9_IdentityIS1_ESt4lessIS1_ESaIS1_EE11_Alloc_nodeclIS1_EEPSt13_Rb_tree_nodeIS1_ERKT_, @function
_ZNKSt8_Rb_treeISt4pairIiiES1_St9_IdentityIS1_ESt4lessIS1_ESaIS1_EE11_Alloc_nodeclIS1_EEPSt13_Rb_tree_nodeIS1_ERKT_:
	pushl	%ebp
	movl	%esp, %ebp
	subl	$8, %esp
	movl	8(%ebp), %eax
	movl	(%eax), %eax
	subl	$8, %esp
	pushl	12(%ebp)
	pushl	%eax
	call	_ZNSt8_Rb_treeISt4pairIiiES1_St9_IdentityIS1_ESt4lessIS1_ESaIS1_EE14_M_create_nodeERKS1_
	addl	$16, %esp
	leave
	ret
	.size	_ZNKSt8_Rb_treeISt4pairIiiES1_St9_IdentityIS1_ESt4lessIS1_ESaIS1_EE11_Alloc_nodeclIS1_EEPSt13_Rb_tree_nodeIS1_ERKT_, .-_ZNKSt8_Rb_treeISt4pairIiiES1_St9_IdentityIS1_ESt4lessIS1_ESaIS1_EE11_Alloc_nodeclIS1_EEPSt13_Rb_tree_nodeIS1_ERKT_
	.section	.text._ZN9__gnu_cxx13new_allocatorISt13_Rb_tree_nodeISt4pairIiiEEEC2Ev,"axG",@progbits,_ZN9__gnu_cxx13new_allocatorISt13_Rb_tree_nodeISt4pairIiiEEEC5Ev,comdat
	.align 2
	.weak	_ZN9__gnu_cxx13new_allocatorISt13_Rb_tree_nodeISt4pairIiiEEEC2Ev
	.type	_ZN9__gnu_cxx13new_allocatorISt13_Rb_tree_nodeISt4pairIiiEEEC2Ev, @function
_ZN9__gnu_cxx13new_allocatorISt13_Rb_tree_nodeISt4pairIiiEEEC2Ev:
	pushl	%ebp
	movl	%esp, %ebp
	nop
	popl	%ebp
	ret
	.size	_ZN9__gnu_cxx13new_allocatorISt13_Rb_tree_nodeISt4pairIiiEEEC2Ev, .-_ZN9__gnu_cxx13new_allocatorISt13_Rb_tree_nodeISt4pairIiiEEEC2Ev
	.weak	_ZN9__gnu_cxx13new_allocatorISt13_Rb_tree_nodeISt4pairIiiEEEC1Ev
	.set	_ZN9__gnu_cxx13new_allocatorISt13_Rb_tree_nodeISt4pairIiiEEEC1Ev,_ZN9__gnu_cxx13new_allocatorISt13_Rb_tree_nodeISt4pairIiiEEEC2Ev
	.section	.text._ZNKSt8_Rb_treeISt4pairIiiES1_St9_IdentityIS1_ESt4lessIS1_ESaIS1_EE13get_allocatorEv,"axG",@progbits,_ZNKSt8_Rb_treeISt4pairIiiES1_St9_IdentityIS1_ESt4lessIS1_ESaIS1_EE13get_allocatorEv,comdat
	.align 2
	.weak	_ZNKSt8_Rb_treeISt4pairIiiES1_St9_IdentityIS1_ESt4lessIS1_ESaIS1_EE13get_allocatorEv
	.type	_ZNKSt8_Rb_treeISt4pairIiiES1_St9_IdentityIS1_ESt4lessIS1_ESaIS1_EE13get_allocatorEv, @function
_ZNKSt8_Rb_treeISt4pairIiiES1_St9_IdentityIS1_ESt4lessIS1_ESaIS1_EE13get_allocatorEv:
	pushl	%ebp
	movl	%esp, %ebp
	subl	$8, %esp
	subl	$12, %esp
	pushl	12(%ebp)
	call	_ZNKSt8_Rb_treeISt4pairIiiES1_St9_IdentityIS1_ESt4lessIS1_ESaIS1_EE21_M_get_Node_allocatorEv
	addl	$16, %esp
	subl	$8, %esp
	pushl	%eax
	pushl	8(%ebp)
	call	_ZNSaISt4pairIiiEEC1ISt13_Rb_tree_nodeIS0_EEERKSaIT_E
	addl	$16, %esp
	movl	8(%ebp), %eax
	leave
	ret	$4
	.size	_ZNKSt8_Rb_treeISt4pairIiiES1_St9_IdentityIS1_ESt4lessIS1_ESaIS1_EE13get_allocatorEv, .-_ZNKSt8_Rb_treeISt4pairIiiES1_St9_IdentityIS1_ESt4lessIS1_ESaIS1_EE13get_allocatorEv
	.section	.text._ZNSaISt4pairIiiEED2Ev,"axG",@progbits,_ZNSaISt4pairIiiEED5Ev,comdat
	.align 2
	.weak	_ZNSaISt4pairIiiEED2Ev
	.type	_ZNSaISt4pairIiiEED2Ev, @function
_ZNSaISt4pairIiiEED2Ev:
	pushl	%ebp
	movl	%esp, %ebp
	subl	$8, %esp
	subl	$12, %esp
	pushl	8(%ebp)
	call	_ZN9__gnu_cxx13new_allocatorISt4pairIiiEED2Ev
	addl	$16, %esp
	nop
	leave
	ret
	.size	_ZNSaISt4pairIiiEED2Ev, .-_ZNSaISt4pairIiiEED2Ev
	.weak	_ZNSaISt4pairIiiEED1Ev
	.set	_ZNSaISt4pairIiiEED1Ev,_ZNSaISt4pairIiiEED2Ev
	.section	.text._ZNSt13_Rb_tree_nodeISt4pairIiiEE9_M_valptrEv,"axG",@progbits,_ZNSt13_Rb_tree_nodeISt4pairIiiEE9_M_valptrEv,comdat
	.align 2
	.weak	_ZNSt13_Rb_tree_nodeISt4pairIiiEE9_M_valptrEv
	.type	_ZNSt13_Rb_tree_nodeISt4pairIiiEE9_M_valptrEv, @function
_ZNSt13_Rb_tree_nodeISt4pairIiiEE9_M_valptrEv:
	pushl	%ebp
	movl	%esp, %ebp
	subl	$8, %esp
	movl	8(%ebp), %eax
	addl	$16, %eax
	subl	$12, %esp
	pushl	%eax
	call	_ZSt11__addressofISt4pairIiiEEPT_RS2_
	addl	$16, %esp
	leave
	ret
	.size	_ZNSt13_Rb_tree_nodeISt4pairIiiEE9_M_valptrEv, .-_ZNSt13_Rb_tree_nodeISt4pairIiiEE9_M_valptrEv
	.section	.text._ZN9__gnu_cxx13new_allocatorISt4pairIiiEE7destroyEPS2_,"axG",@progbits,_ZN9__gnu_cxx13new_allocatorISt4pairIiiEE7destroyEPS2_,comdat
	.align 2
	.weak	_ZN9__gnu_cxx13new_allocatorISt4pairIiiEE7destroyEPS2_
	.type	_ZN9__gnu_cxx13new_allocatorISt4pairIiiEE7destroyEPS2_, @function
_ZN9__gnu_cxx13new_allocatorISt4pairIiiEE7destroyEPS2_:
	pushl	%ebp
	movl	%esp, %ebp
	nop
	popl	%ebp
	ret
	.size	_ZN9__gnu_cxx13new_allocatorISt4pairIiiEE7destroyEPS2_, .-_ZN9__gnu_cxx13new_allocatorISt4pairIiiEE7destroyEPS2_
	.section	.text._ZN9__gnu_cxx14__alloc_traitsISaISt13_Rb_tree_nodeISt4pairIiiEEEE10deallocateERS5_PS4_j,"axG",@progbits,_ZN9__gnu_cxx14__alloc_traitsISaISt13_Rb_tree_nodeISt4pairIiiEEEE10deallocateERS5_PS4_j,comdat
	.weak	_ZN9__gnu_cxx14__alloc_traitsISaISt13_Rb_tree_nodeISt4pairIiiEEEE10deallocateERS5_PS4_j
	.type	_ZN9__gnu_cxx14__alloc_traitsISaISt13_Rb_tree_nodeISt4pairIiiEEEE10deallocateERS5_PS4_j, @function
_ZN9__gnu_cxx14__alloc_traitsISaISt13_Rb_tree_nodeISt4pairIiiEEEE10deallocateERS5_PS4_j:
	pushl	%ebp
	movl	%esp, %ebp
	subl	$8, %esp
	subl	$4, %esp
	pushl	16(%ebp)
	pushl	12(%ebp)
	pushl	8(%ebp)
	call	_ZN9__gnu_cxx13new_allocatorISt13_Rb_tree_nodeISt4pairIiiEEE10deallocateEPS4_j
	addl	$16, %esp
	nop
	leave
	ret
	.size	_ZN9__gnu_cxx14__alloc_traitsISaISt13_Rb_tree_nodeISt4pairIiiEEEE10deallocateERS5_PS4_j, .-_ZN9__gnu_cxx14__alloc_traitsISaISt13_Rb_tree_nodeISt4pairIiiEEEE10deallocateERS5_PS4_j
	.section	.text._ZNSt8_Rb_treeISt4pairIiiES1_St9_IdentityIS1_ESt4lessIS1_ESaIS1_EE21_M_get_Node_allocatorEv,"axG",@progbits,_ZNSt8_Rb_treeISt4pairIiiES1_St9_IdentityIS1_ESt4lessIS1_ESaIS1_EE21_M_get_Node_allocatorEv,comdat
	.align 2
	.weak	_ZNSt8_Rb_treeISt4pairIiiES1_St9_IdentityIS1_ESt4lessIS1_ESaIS1_EE21_M_get_Node_allocatorEv
	.type	_ZNSt8_Rb_treeISt4pairIiiES1_St9_IdentityIS1_ESt4lessIS1_ESaIS1_EE21_M_get_Node_allocatorEv, @function
_ZNSt8_Rb_treeISt4pairIiiES1_St9_IdentityIS1_ESt4lessIS1_ESaIS1_EE21_M_get_Node_allocatorEv:
	pushl	%ebp
	movl	%esp, %ebp
	movl	8(%ebp), %eax
	popl	%ebp
	ret
	.size	_ZNSt8_Rb_treeISt4pairIiiES1_St9_IdentityIS1_ESt4lessIS1_ESaIS1_EE21_M_get_Node_allocatorEv, .-_ZNSt8_Rb_treeISt4pairIiiES1_St9_IdentityIS1_ESt4lessIS1_ESaIS1_EE21_M_get_Node_allocatorEv
	.section	.text._ZNSt8_Rb_treeISt4pairIiiES1_St9_IdentityIS1_ESt4lessIS1_ESaIS1_EE8_S_valueEPKSt13_Rb_tree_nodeIS1_E,"axG",@progbits,_ZNSt8_Rb_treeISt4pairIiiES1_St9_IdentityIS1_ESt4lessIS1_ESaIS1_EE8_S_valueEPKSt13_Rb_tree_nodeIS1_E,comdat
	.weak	_ZNSt8_Rb_treeISt4pairIiiES1_St9_IdentityIS1_ESt4lessIS1_ESaIS1_EE8_S_valueEPKSt13_Rb_tree_nodeIS1_E
	.type	_ZNSt8_Rb_treeISt4pairIiiES1_St9_IdentityIS1_ESt4lessIS1_ESaIS1_EE8_S_valueEPKSt13_Rb_tree_nodeIS1_E, @function
_ZNSt8_Rb_treeISt4pairIiiES1_St9_IdentityIS1_ESt4lessIS1_ESaIS1_EE8_S_valueEPKSt13_Rb_tree_nodeIS1_E:
	pushl	%ebp
	movl	%esp, %ebp
	subl	$8, %esp
	subl	$12, %esp
	pushl	8(%ebp)
	call	_ZNKSt13_Rb_tree_nodeISt4pairIiiEE9_M_valptrEv
	addl	$16, %esp
	leave
	ret
	.size	_ZNSt8_Rb_treeISt4pairIiiES1_St9_IdentityIS1_ESt4lessIS1_ESaIS1_EE8_S_valueEPKSt13_Rb_tree_nodeIS1_E, .-_ZNSt8_Rb_treeISt4pairIiiES1_St9_IdentityIS1_ESt4lessIS1_ESaIS1_EE8_S_valueEPKSt13_Rb_tree_nodeIS1_E
	.section	.text._ZNKSt13_Rb_tree_nodeISt4pairIiiEE9_M_valptrEv,"axG",@progbits,_ZNKSt13_Rb_tree_nodeISt4pairIiiEE9_M_valptrEv,comdat
	.align 2
	.weak	_ZNKSt13_Rb_tree_nodeISt4pairIiiEE9_M_valptrEv
	.type	_ZNKSt13_Rb_tree_nodeISt4pairIiiEE9_M_valptrEv, @function
_ZNKSt13_Rb_tree_nodeISt4pairIiiEE9_M_valptrEv:
	pushl	%ebp
	movl	%esp, %ebp
	subl	$8, %esp
	movl	8(%ebp), %eax
	addl	$16, %eax
	subl	$12, %esp
	pushl	%eax
	call	_ZSt11__addressofIKSt4pairIiiEEPT_RS3_
	addl	$16, %esp
	leave
	ret
	.size	_ZNKSt13_Rb_tree_nodeISt4pairIiiEE9_M_valptrEv, .-_ZNKSt13_Rb_tree_nodeISt4pairIiiEE9_M_valptrEv
	.section	.text._ZNSt8_Rb_treeISt4pairIiiES1_St9_IdentityIS1_ESt4lessIS1_ESaIS1_EE14_M_create_nodeERKS1_,"axG",@progbits,_ZNSt8_Rb_treeISt4pairIiiES1_St9_IdentityIS1_ESt4lessIS1_ESaIS1_EE14_M_create_nodeERKS1_,comdat
	.align 2
	.weak	_ZNSt8_Rb_treeISt4pairIiiES1_St9_IdentityIS1_ESt4lessIS1_ESaIS1_EE14_M_create_nodeERKS1_
	.type	_ZNSt8_Rb_treeISt4pairIiiES1_St9_IdentityIS1_ESt4lessIS1_ESaIS1_EE14_M_create_nodeERKS1_, @function
_ZNSt8_Rb_treeISt4pairIiiES1_St9_IdentityIS1_ESt4lessIS1_ESaIS1_EE14_M_create_nodeERKS1_:
	pushl	%ebp
	movl	%esp, %ebp
	subl	$24, %esp
	subl	$12, %esp
	pushl	8(%ebp)
	call	_ZNSt8_Rb_treeISt4pairIiiES1_St9_IdentityIS1_ESt4lessIS1_ESaIS1_EE11_M_get_nodeEv
	addl	$16, %esp
	movl	%eax, -12(%ebp)
	subl	$4, %esp
	pushl	12(%ebp)
	pushl	-12(%ebp)
	pushl	8(%ebp)
	call	_ZNSt8_Rb_treeISt4pairIiiES1_St9_IdentityIS1_ESt4lessIS1_ESaIS1_EE17_M_construct_nodeEPSt13_Rb_tree_nodeIS1_ERKS1_
	addl	$16, %esp
	movl	-12(%ebp), %eax
	leave
	ret
	.size	_ZNSt8_Rb_treeISt4pairIiiES1_St9_IdentityIS1_ESt4lessIS1_ESaIS1_EE14_M_create_nodeERKS1_, .-_ZNSt8_Rb_treeISt4pairIiiES1_St9_IdentityIS1_ESt4lessIS1_ESaIS1_EE14_M_create_nodeERKS1_
	.section	.text._ZNKSt8_Rb_treeISt4pairIiiES1_St9_IdentityIS1_ESt4lessIS1_ESaIS1_EE21_M_get_Node_allocatorEv,"axG",@progbits,_ZNKSt8_Rb_treeISt4pairIiiES1_St9_IdentityIS1_ESt4lessIS1_ESaIS1_EE21_M_get_Node_allocatorEv,comdat
	.align 2
	.weak	_ZNKSt8_Rb_treeISt4pairIiiES1_St9_IdentityIS1_ESt4lessIS1_ESaIS1_EE21_M_get_Node_allocatorEv
	.type	_ZNKSt8_Rb_treeISt4pairIiiES1_St9_IdentityIS1_ESt4lessIS1_ESaIS1_EE21_M_get_Node_allocatorEv, @function
_ZNKSt8_Rb_treeISt4pairIiiES1_St9_IdentityIS1_ESt4lessIS1_ESaIS1_EE21_M_get_Node_allocatorEv:
	pushl	%ebp
	movl	%esp, %ebp
	movl	8(%ebp), %eax
	popl	%ebp
	ret
	.size	_ZNKSt8_Rb_treeISt4pairIiiES1_St9_IdentityIS1_ESt4lessIS1_ESaIS1_EE21_M_get_Node_allocatorEv, .-_ZNKSt8_Rb_treeISt4pairIiiES1_St9_IdentityIS1_ESt4lessIS1_ESaIS1_EE21_M_get_Node_allocatorEv
	.section	.text._ZNSaISt4pairIiiEEC2ISt13_Rb_tree_nodeIS0_EEERKSaIT_E,"axG",@progbits,_ZNSaISt4pairIiiEEC5ISt13_Rb_tree_nodeIS0_EEERKSaIT_E,comdat
	.align 2
	.weak	_ZNSaISt4pairIiiEEC2ISt13_Rb_tree_nodeIS0_EEERKSaIT_E
	.type	_ZNSaISt4pairIiiEEC2ISt13_Rb_tree_nodeIS0_EEERKSaIT_E, @function
_ZNSaISt4pairIiiEEC2ISt13_Rb_tree_nodeIS0_EEERKSaIT_E:
	pushl	%ebp
	movl	%esp, %ebp
	subl	$8, %esp
	subl	$12, %esp
	pushl	8(%ebp)
	call	_ZN9__gnu_cxx13new_allocatorISt4pairIiiEEC2Ev
	addl	$16, %esp
	nop
	leave
	ret
	.size	_ZNSaISt4pairIiiEEC2ISt13_Rb_tree_nodeIS0_EEERKSaIT_E, .-_ZNSaISt4pairIiiEEC2ISt13_Rb_tree_nodeIS0_EEERKSaIT_E
	.weak	_ZNSaISt4pairIiiEEC1ISt13_Rb_tree_nodeIS0_EEERKSaIT_E
	.set	_ZNSaISt4pairIiiEEC1ISt13_Rb_tree_nodeIS0_EEERKSaIT_E,_ZNSaISt4pairIiiEEC2ISt13_Rb_tree_nodeIS0_EEERKSaIT_E
	.section	.text._ZN9__gnu_cxx13new_allocatorISt4pairIiiEED2Ev,"axG",@progbits,_ZN9__gnu_cxx13new_allocatorISt4pairIiiEED5Ev,comdat
	.align 2
	.weak	_ZN9__gnu_cxx13new_allocatorISt4pairIiiEED2Ev
	.type	_ZN9__gnu_cxx13new_allocatorISt4pairIiiEED2Ev, @function
_ZN9__gnu_cxx13new_allocatorISt4pairIiiEED2Ev:
	pushl	%ebp
	movl	%esp, %ebp
	nop
	popl	%ebp
	ret
	.size	_ZN9__gnu_cxx13new_allocatorISt4pairIiiEED2Ev, .-_ZN9__gnu_cxx13new_allocatorISt4pairIiiEED2Ev
	.weak	_ZN9__gnu_cxx13new_allocatorISt4pairIiiEED1Ev
	.set	_ZN9__gnu_cxx13new_allocatorISt4pairIiiEED1Ev,_ZN9__gnu_cxx13new_allocatorISt4pairIiiEED2Ev
	.section	.text._ZSt11__addressofISt4pairIiiEEPT_RS2_,"axG",@progbits,_ZSt11__addressofISt4pairIiiEEPT_RS2_,comdat
	.weak	_ZSt11__addressofISt4pairIiiEEPT_RS2_
	.type	_ZSt11__addressofISt4pairIiiEEPT_RS2_, @function
_ZSt11__addressofISt4pairIiiEEPT_RS2_:
	pushl	%ebp
	movl	%esp, %ebp
	movl	8(%ebp), %eax
	popl	%ebp
	ret
	.size	_ZSt11__addressofISt4pairIiiEEPT_RS2_, .-_ZSt11__addressofISt4pairIiiEEPT_RS2_
	.section	.text._ZN9__gnu_cxx13new_allocatorISt13_Rb_tree_nodeISt4pairIiiEEE10deallocateEPS4_j,"axG",@progbits,_ZN9__gnu_cxx13new_allocatorISt13_Rb_tree_nodeISt4pairIiiEEE10deallocateEPS4_j,comdat
	.align 2
	.weak	_ZN9__gnu_cxx13new_allocatorISt13_Rb_tree_nodeISt4pairIiiEEE10deallocateEPS4_j
	.type	_ZN9__gnu_cxx13new_allocatorISt13_Rb_tree_nodeISt4pairIiiEEE10deallocateEPS4_j, @function
_ZN9__gnu_cxx13new_allocatorISt13_Rb_tree_nodeISt4pairIiiEEE10deallocateEPS4_j:
	pushl	%ebp
	movl	%esp, %ebp
	subl	$8, %esp
	subl	$12, %esp
	pushl	12(%ebp)
	call	_ZdlPv
	addl	$16, %esp
	nop
	leave
	ret
	.size	_ZN9__gnu_cxx13new_allocatorISt13_Rb_tree_nodeISt4pairIiiEEE10deallocateEPS4_j, .-_ZN9__gnu_cxx13new_allocatorISt13_Rb_tree_nodeISt4pairIiiEEE10deallocateEPS4_j
	.section	.text._ZSt11__addressofIKSt4pairIiiEEPT_RS3_,"axG",@progbits,_ZSt11__addressofIKSt4pairIiiEEPT_RS3_,comdat
	.weak	_ZSt11__addressofIKSt4pairIiiEEPT_RS3_
	.type	_ZSt11__addressofIKSt4pairIiiEEPT_RS3_, @function
_ZSt11__addressofIKSt4pairIiiEEPT_RS3_:
	pushl	%ebp
	movl	%esp, %ebp
	movl	8(%ebp), %eax
	popl	%ebp
	ret
	.size	_ZSt11__addressofIKSt4pairIiiEEPT_RS3_, .-_ZSt11__addressofIKSt4pairIiiEEPT_RS3_
	.section	.text._ZNSt8_Rb_treeISt4pairIiiES1_St9_IdentityIS1_ESt4lessIS1_ESaIS1_EE11_M_get_nodeEv,"axG",@progbits,_ZNSt8_Rb_treeISt4pairIiiES1_St9_IdentityIS1_ESt4lessIS1_ESaIS1_EE11_M_get_nodeEv,comdat
	.align 2
	.weak	_ZNSt8_Rb_treeISt4pairIiiES1_St9_IdentityIS1_ESt4lessIS1_ESaIS1_EE11_M_get_nodeEv
	.type	_ZNSt8_Rb_treeISt4pairIiiES1_St9_IdentityIS1_ESt4lessIS1_ESaIS1_EE11_M_get_nodeEv, @function
_ZNSt8_Rb_treeISt4pairIiiES1_St9_IdentityIS1_ESt4lessIS1_ESaIS1_EE11_M_get_nodeEv:
	pushl	%ebp
	movl	%esp, %ebp
	subl	$8, %esp
	subl	$12, %esp
	pushl	8(%ebp)
	call	_ZNSt8_Rb_treeISt4pairIiiES1_St9_IdentityIS1_ESt4lessIS1_ESaIS1_EE21_M_get_Node_allocatorEv
	addl	$16, %esp
	subl	$8, %esp
	pushl	$1
	pushl	%eax
	call	_ZN9__gnu_cxx14__alloc_traitsISaISt13_Rb_tree_nodeISt4pairIiiEEEE8allocateERS5_j
	addl	$16, %esp
	leave
	ret
	.size	_ZNSt8_Rb_treeISt4pairIiiES1_St9_IdentityIS1_ESt4lessIS1_ESaIS1_EE11_M_get_nodeEv, .-_ZNSt8_Rb_treeISt4pairIiiES1_St9_IdentityIS1_ESt4lessIS1_ESaIS1_EE11_M_get_nodeEv
	.section	.text._ZNSt8_Rb_treeISt4pairIiiES1_St9_IdentityIS1_ESt4lessIS1_ESaIS1_EE17_M_construct_nodeEPSt13_Rb_tree_nodeIS1_ERKS1_,"axG",@progbits,_ZNSt8_Rb_treeISt4pairIiiES1_St9_IdentityIS1_ESt4lessIS1_ESaIS1_EE17_M_construct_nodeEPSt13_Rb_tree_nodeIS1_ERKS1_,comdat
	.align 2
	.weak	_ZNSt8_Rb_treeISt4pairIiiES1_St9_IdentityIS1_ESt4lessIS1_ESaIS1_EE17_M_construct_nodeEPSt13_Rb_tree_nodeIS1_ERKS1_
	.type	_ZNSt8_Rb_treeISt4pairIiiES1_St9_IdentityIS1_ESt4lessIS1_ESaIS1_EE17_M_construct_nodeEPSt13_Rb_tree_nodeIS1_ERKS1_, @function
_ZNSt8_Rb_treeISt4pairIiiES1_St9_IdentityIS1_ESt4lessIS1_ESaIS1_EE17_M_construct_nodeEPSt13_Rb_tree_nodeIS1_ERKS1_:
	pushl	%ebp
	movl	%esp, %ebp
	pushl	%ebx
	subl	$36, %esp
	movl	8(%ebp), %eax
	movl	%eax, -28(%ebp)
	movl	12(%ebp), %eax
	movl	%eax, -32(%ebp)
	movl	16(%ebp), %eax
	movl	%eax, -36(%ebp)
	movl	%gs:20, %eax
	movl	%eax, -12(%ebp)
	xorl	%eax, %eax
	subl	$12, %esp
	pushl	-32(%ebp)
	call	_ZNSt13_Rb_tree_nodeISt4pairIiiEE9_M_valptrEv
	addl	$16, %esp
	movl	%eax, %ebx
	leal	-13(%ebp), %eax
	subl	$8, %esp
	pushl	-28(%ebp)
	pushl	%eax
	call	_ZNKSt8_Rb_treeISt4pairIiiES1_St9_IdentityIS1_ESt4lessIS1_ESaIS1_EE13get_allocatorEv
	addl	$12, %esp
	subl	$4, %esp
	pushl	-36(%ebp)
	pushl	%ebx
	leal	-13(%ebp), %eax
	pushl	%eax
	call	_ZN9__gnu_cxx13new_allocatorISt4pairIiiEE9constructEPS2_RKS2_
	addl	$16, %esp
	subl	$12, %esp
	leal	-13(%ebp), %eax
	pushl	%eax
	call	_ZNSaISt4pairIiiEED1Ev
	addl	$16, %esp
	nop
	movl	-12(%ebp), %eax
	xorl	%gs:20, %eax
	je	.L161
	call	__stack_chk_fail
.L161:
	movl	-4(%ebp), %ebx
	leave
	ret
	.size	_ZNSt8_Rb_treeISt4pairIiiES1_St9_IdentityIS1_ESt4lessIS1_ESaIS1_EE17_M_construct_nodeEPSt13_Rb_tree_nodeIS1_ERKS1_, .-_ZNSt8_Rb_treeISt4pairIiiES1_St9_IdentityIS1_ESt4lessIS1_ESaIS1_EE17_M_construct_nodeEPSt13_Rb_tree_nodeIS1_ERKS1_
	.section	.text._ZN9__gnu_cxx13new_allocatorISt4pairIiiEEC2Ev,"axG",@progbits,_ZN9__gnu_cxx13new_allocatorISt4pairIiiEEC5Ev,comdat
	.align 2
	.weak	_ZN9__gnu_cxx13new_allocatorISt4pairIiiEEC2Ev
	.type	_ZN9__gnu_cxx13new_allocatorISt4pairIiiEEC2Ev, @function
_ZN9__gnu_cxx13new_allocatorISt4pairIiiEEC2Ev:
	pushl	%ebp
	movl	%esp, %ebp
	nop
	popl	%ebp
	ret
	.size	_ZN9__gnu_cxx13new_allocatorISt4pairIiiEEC2Ev, .-_ZN9__gnu_cxx13new_allocatorISt4pairIiiEEC2Ev
	.weak	_ZN9__gnu_cxx13new_allocatorISt4pairIiiEEC1Ev
	.set	_ZN9__gnu_cxx13new_allocatorISt4pairIiiEEC1Ev,_ZN9__gnu_cxx13new_allocatorISt4pairIiiEEC2Ev
	.section	.text._ZN9__gnu_cxx14__alloc_traitsISaISt13_Rb_tree_nodeISt4pairIiiEEEE8allocateERS5_j,"axG",@progbits,_ZN9__gnu_cxx14__alloc_traitsISaISt13_Rb_tree_nodeISt4pairIiiEEEE8allocateERS5_j,comdat
	.weak	_ZN9__gnu_cxx14__alloc_traitsISaISt13_Rb_tree_nodeISt4pairIiiEEEE8allocateERS5_j
	.type	_ZN9__gnu_cxx14__alloc_traitsISaISt13_Rb_tree_nodeISt4pairIiiEEEE8allocateERS5_j, @function
_ZN9__gnu_cxx14__alloc_traitsISaISt13_Rb_tree_nodeISt4pairIiiEEEE8allocateERS5_j:
	pushl	%ebp
	movl	%esp, %ebp
	subl	$8, %esp
	subl	$4, %esp
	pushl	$0
	pushl	12(%ebp)
	pushl	8(%ebp)
	call	_ZN9__gnu_cxx13new_allocatorISt13_Rb_tree_nodeISt4pairIiiEEE8allocateEjPKv
	addl	$16, %esp
	leave
	ret
	.size	_ZN9__gnu_cxx14__alloc_traitsISaISt13_Rb_tree_nodeISt4pairIiiEEEE8allocateERS5_j, .-_ZN9__gnu_cxx14__alloc_traitsISaISt13_Rb_tree_nodeISt4pairIiiEEEE8allocateERS5_j
	.section	.text._ZN9__gnu_cxx13new_allocatorISt4pairIiiEE9constructEPS2_RKS2_,"axG",@progbits,_ZN9__gnu_cxx13new_allocatorISt4pairIiiEE9constructEPS2_RKS2_,comdat
	.align 2
	.weak	_ZN9__gnu_cxx13new_allocatorISt4pairIiiEE9constructEPS2_RKS2_
	.type	_ZN9__gnu_cxx13new_allocatorISt4pairIiiEE9constructEPS2_RKS2_, @function
_ZN9__gnu_cxx13new_allocatorISt4pairIiiEE9constructEPS2_RKS2_:
	pushl	%ebp
	movl	%esp, %ebp
	subl	$8, %esp
	movl	12(%ebp), %eax
	subl	$8, %esp
	pushl	%eax
	pushl	$8
	call	_ZnwjPv
	addl	$16, %esp
	movl	%eax, %ecx
	testl	%ecx, %ecx
	je	.L168
	movl	16(%ebp), %eax
	movl	4(%eax), %edx
	movl	(%eax), %eax
	movl	%eax, (%ecx)
	movl	%edx, 4(%ecx)
.L168:
	nop
	leave
	ret
	.size	_ZN9__gnu_cxx13new_allocatorISt4pairIiiEE9constructEPS2_RKS2_, .-_ZN9__gnu_cxx13new_allocatorISt4pairIiiEE9constructEPS2_RKS2_
	.section	.text._ZN9__gnu_cxx13new_allocatorISt13_Rb_tree_nodeISt4pairIiiEEE8allocateEjPKv,"axG",@progbits,_ZN9__gnu_cxx13new_allocatorISt13_Rb_tree_nodeISt4pairIiiEEE8allocateEjPKv,comdat
	.align 2
	.weak	_ZN9__gnu_cxx13new_allocatorISt13_Rb_tree_nodeISt4pairIiiEEE8allocateEjPKv
	.type	_ZN9__gnu_cxx13new_allocatorISt13_Rb_tree_nodeISt4pairIiiEEE8allocateEjPKv, @function
_ZN9__gnu_cxx13new_allocatorISt13_Rb_tree_nodeISt4pairIiiEEE8allocateEjPKv:
	pushl	%ebp
	movl	%esp, %ebp
	subl	$8, %esp
	subl	$12, %esp
	pushl	8(%ebp)
	call	_ZNK9__gnu_cxx13new_allocatorISt13_Rb_tree_nodeISt4pairIiiEEE8max_sizeEv
	addl	$16, %esp
	cmpl	12(%ebp), %eax
	setb	%al
	testb	%al, %al
	je	.L170
	call	_ZSt17__throw_bad_allocv
.L170:
	movl	12(%ebp), %edx
	movl	%edx, %eax
	addl	%eax, %eax
	addl	%edx, %eax
	sall	$3, %eax
	subl	$12, %esp
	pushl	%eax
	call	_Znwj
	addl	$16, %esp
	leave
	ret
	.size	_ZN9__gnu_cxx13new_allocatorISt13_Rb_tree_nodeISt4pairIiiEEE8allocateEjPKv, .-_ZN9__gnu_cxx13new_allocatorISt13_Rb_tree_nodeISt4pairIiiEEE8allocateEjPKv
	.section	.text._ZNK9__gnu_cxx13new_allocatorISt13_Rb_tree_nodeISt4pairIiiEEE8max_sizeEv,"axG",@progbits,_ZNK9__gnu_cxx13new_allocatorISt13_Rb_tree_nodeISt4pairIiiEEE8max_sizeEv,comdat
	.align 2
	.weak	_ZNK9__gnu_cxx13new_allocatorISt13_Rb_tree_nodeISt4pairIiiEEE8max_sizeEv
	.type	_ZNK9__gnu_cxx13new_allocatorISt13_Rb_tree_nodeISt4pairIiiEEE8max_sizeEv, @function
_ZNK9__gnu_cxx13new_allocatorISt13_Rb_tree_nodeISt4pairIiiEEE8max_sizeEv:
	pushl	%ebp
	movl	%esp, %ebp
	movl	$178956970, %eax
	popl	%ebp
	ret
	.size	_ZNK9__gnu_cxx13new_allocatorISt13_Rb_tree_nodeISt4pairIiiEEE8max_sizeEv, .-_ZNK9__gnu_cxx13new_allocatorISt13_Rb_tree_nodeISt4pairIiiEEE8max_sizeEv
	.ident	"GCC: (Ubuntu 5.1.1-4ubuntu12) 5.1.1 20150504"
	.section	.note.GNU-stack,"",@progbits
