	.file	"Sphere_Generation.cpp"
	.section	.text._ZnwjPv,"axG",@progbits,_ZnwjPv,comdat
	.weak	_ZnwjPv
	.type	_ZnwjPv, @function
_ZnwjPv:
	pushl	%ebp
	movl	%esp, %ebp
	movl	12(%ebp), %eax
	popl	%ebp
	ret
	.size	_ZnwjPv, .-_ZnwjPv
	.globl	_Z5mymapB5cxx11
	.bss
	.align 4
	.type	_Z5mymapB5cxx11, @object
	.size	_Z5mymapB5cxx11, 24
_Z5mymapB5cxx11:
	.zero	24
	.globl	_Z3itrB5cxx11
	.align 4
	.type	_Z3itrB5cxx11, @object
	.size	_Z3itrB5cxx11, 4
_Z3itrB5cxx11:
	.zero	4
	.text
	.globl	_Z11putpixeloneiii
	.type	_Z11putpixeloneiii, @function
_Z11putpixeloneiii:
	pushl	%ebp
	movl	%esp, %ebp
	subl	$24, %esp
	movl	%gs:20, %eax
	movl	%eax, -12(%ebp)
	xorl	%eax, %eax
	leal	-20(%ebp), %eax
	subl	$4, %esp
	pushl	16(%ebp)
	pushl	12(%ebp)
	pushl	%eax
	call	_ZSt9make_pairIiiESt4pairIT_T0_ES1_S2_
	addl	$12, %esp
	subl	$8, %esp
	leal	8(%ebp), %eax
	pushl	%eax
	pushl	$_Z5mymapB5cxx11
	call	_ZNSt3mapIiNSt7__cxx114listISt4pairIiiESaIS3_EEESt4lessIiESaIS2_IKiS5_EEEixERS8_
	addl	$16, %esp
	movl	%eax, %edx
	subl	$8, %esp
	leal	-20(%ebp), %eax
	pushl	%eax
	pushl	%edx
	call	_ZNSt7__cxx114listISt4pairIiiESaIS2_EE9push_backERKS2_
	addl	$16, %esp
	nop
	movl	-12(%ebp), %eax
	xorl	%gs:20, %eax
	je	.L4
	call	__stack_chk_fail
.L4:
	leave
	ret
	.size	_Z11putpixeloneiii, .-_Z11putpixeloneiii
	.globl	_Z14putpixelmiddleiiiiii
	.type	_Z14putpixelmiddleiiiiii, @function
_Z14putpixelmiddleiiiiii:
	pushl	%ebp
	movl	%esp, %ebp
	pushl	%ebx
	subl	$4, %esp
	movl	16(%ebp), %edx
	movl	28(%ebp), %eax
	leal	(%edx,%eax), %ecx
	movl	12(%ebp), %edx
	movl	24(%ebp), %eax
	addl	%eax, %edx
	movl	8(%ebp), %ebx
	movl	20(%ebp), %eax
	addl	%ebx, %eax
	subl	$4, %esp
	pushl	%ecx
	pushl	%edx
	pushl	%eax
	call	_Z11putpixeloneiii
	addl	$16, %esp
	movl	28(%ebp), %eax
	subl	16(%ebp), %eax
	movl	12(%ebp), %ecx
	movl	24(%ebp), %edx
	addl	%edx, %ecx
	movl	8(%ebp), %ebx
	movl	20(%ebp), %edx
	addl	%ebx, %edx
	subl	$4, %esp
	pushl	%eax
	pushl	%ecx
	pushl	%edx
	call	_Z11putpixeloneiii
	addl	$16, %esp
	movl	12(%ebp), %edx
	movl	28(%ebp), %eax
	leal	(%edx,%eax), %ecx
	movl	16(%ebp), %edx
	movl	24(%ebp), %eax
	addl	%eax, %edx
	movl	8(%ebp), %ebx
	movl	20(%ebp), %eax
	addl	%ebx, %eax
	subl	$4, %esp
	pushl	%ecx
	pushl	%edx
	pushl	%eax
	call	_Z11putpixeloneiii
	addl	$16, %esp
	movl	12(%ebp), %edx
	movl	28(%ebp), %eax
	leal	(%edx,%eax), %ecx
	movl	24(%ebp), %eax
	subl	16(%ebp), %eax
	movl	8(%ebp), %ebx
	movl	20(%ebp), %edx
	addl	%ebx, %edx
	subl	$4, %esp
	pushl	%ecx
	pushl	%eax
	pushl	%edx
	call	_Z11putpixeloneiii
	addl	$16, %esp
	movl	12(%ebp), %edx
	movl	28(%ebp), %eax
	leal	(%edx,%eax), %ecx
	movl	8(%ebp), %edx
	movl	24(%ebp), %eax
	addl	%eax, %edx
	movl	16(%ebp), %ebx
	movl	20(%ebp), %eax
	addl	%ebx, %eax
	subl	$4, %esp
	pushl	%ecx
	pushl	%edx
	pushl	%eax
	call	_Z11putpixeloneiii
	addl	$16, %esp
	movl	12(%ebp), %edx
	movl	28(%ebp), %eax
	leal	(%edx,%eax), %ecx
	movl	8(%ebp), %edx
	movl	24(%ebp), %eax
	addl	%eax, %edx
	movl	20(%ebp), %eax
	subl	16(%ebp), %eax
	subl	$4, %esp
	pushl	%ecx
	pushl	%edx
	pushl	%eax
	call	_Z11putpixeloneiii
	addl	$16, %esp
	nop
	movl	-4(%ebp), %ebx
	leave
	ret
	.size	_Z14putpixelmiddleiiiiii, .-_Z14putpixelmiddleiiiiii
	.globl	_Z14putpixeldoubleiiiiii
	.type	_Z14putpixeldoubleiiiiii, @function
_Z14putpixeldoubleiiiiii:
	pushl	%ebp
	movl	%esp, %ebp
	pushl	%ebx
	subl	$36, %esp
	movl	$0, -40(%ebp)
.L8:
	cmpl	$2, -40(%ebp)
	jg	.L7
	movl	16(%ebp), %edx
	movl	28(%ebp), %eax
	leal	(%edx,%eax), %ecx
	movl	12(%ebp), %edx
	movl	24(%ebp), %eax
	addl	%eax, %edx
	movl	8(%ebp), %ebx
	movl	20(%ebp), %eax
	addl	%ebx, %eax
	subl	$4, %esp
	pushl	%ecx
	pushl	%edx
	pushl	%eax
	call	_Z11putpixeloneiii
	addl	$16, %esp
	subl	$8, %esp
	leal	16(%ebp), %eax
	pushl	%eax
	leal	12(%ebp), %eax
	pushl	%eax
	call	_ZSt4swapIiEvRT_S1_
	addl	$16, %esp
	subl	$8, %esp
	leal	12(%ebp), %eax
	pushl	%eax
	leal	8(%ebp), %eax
	pushl	%eax
	call	_ZSt4swapIiEvRT_S1_
	addl	$16, %esp
	addl	$1, -40(%ebp)
	jmp	.L8
.L7:
	movl	$0, -36(%ebp)
.L10:
	cmpl	$2, -36(%ebp)
	jg	.L9
	movl	16(%ebp), %edx
	movl	28(%ebp), %eax
	leal	(%edx,%eax), %ecx
	movl	12(%ebp), %edx
	movl	24(%ebp), %eax
	addl	%eax, %edx
	movl	8(%ebp), %eax
	movl	20(%ebp), %ebx
	subl	%eax, %ebx
	movl	%ebx, %eax
	subl	$4, %esp
	pushl	%ecx
	pushl	%edx
	pushl	%eax
	call	_Z11putpixeloneiii
	addl	$16, %esp
	subl	$8, %esp
	leal	16(%ebp), %eax
	pushl	%eax
	leal	12(%ebp), %eax
	pushl	%eax
	call	_ZSt4swapIiEvRT_S1_
	addl	$16, %esp
	subl	$8, %esp
	leal	12(%ebp), %eax
	pushl	%eax
	leal	8(%ebp), %eax
	pushl	%eax
	call	_ZSt4swapIiEvRT_S1_
	addl	$16, %esp
	addl	$1, -36(%ebp)
	jmp	.L10
.L9:
	movl	$0, -32(%ebp)
.L12:
	cmpl	$2, -32(%ebp)
	jg	.L11
	movl	16(%ebp), %edx
	movl	28(%ebp), %eax
	leal	(%edx,%eax), %ecx
	movl	12(%ebp), %eax
	movl	24(%ebp), %edx
	subl	%eax, %edx
	movl	8(%ebp), %ebx
	movl	20(%ebp), %eax
	addl	%ebx, %eax
	subl	$4, %esp
	pushl	%ecx
	pushl	%edx
	pushl	%eax
	call	_Z11putpixeloneiii
	addl	$16, %esp
	subl	$8, %esp
	leal	16(%ebp), %eax
	pushl	%eax
	leal	12(%ebp), %eax
	pushl	%eax
	call	_ZSt4swapIiEvRT_S1_
	addl	$16, %esp
	subl	$8, %esp
	leal	12(%ebp), %eax
	pushl	%eax
	leal	8(%ebp), %eax
	pushl	%eax
	call	_ZSt4swapIiEvRT_S1_
	addl	$16, %esp
	addl	$1, -32(%ebp)
	jmp	.L12
.L11:
	movl	$0, -28(%ebp)
.L14:
	cmpl	$2, -28(%ebp)
	jg	.L13
	movl	16(%ebp), %edx
	movl	28(%ebp), %eax
	leal	(%edx,%eax), %ecx
	movl	12(%ebp), %eax
	movl	24(%ebp), %edx
	subl	%eax, %edx
	movl	8(%ebp), %eax
	movl	20(%ebp), %ebx
	subl	%eax, %ebx
	movl	%ebx, %eax
	subl	$4, %esp
	pushl	%ecx
	pushl	%edx
	pushl	%eax
	call	_Z11putpixeloneiii
	addl	$16, %esp
	subl	$8, %esp
	leal	16(%ebp), %eax
	pushl	%eax
	leal	12(%ebp), %eax
	pushl	%eax
	call	_ZSt4swapIiEvRT_S1_
	addl	$16, %esp
	subl	$8, %esp
	leal	12(%ebp), %eax
	pushl	%eax
	leal	8(%ebp), %eax
	pushl	%eax
	call	_ZSt4swapIiEvRT_S1_
	addl	$16, %esp
	addl	$1, -28(%ebp)
	jmp	.L14
.L13:
	movl	$0, -24(%ebp)
.L16:
	cmpl	$2, -24(%ebp)
	jg	.L15
	movl	16(%ebp), %eax
	movl	28(%ebp), %edx
	movl	%edx, %ecx
	subl	%eax, %ecx
	movl	12(%ebp), %edx
	movl	24(%ebp), %eax
	addl	%eax, %edx
	movl	8(%ebp), %ebx
	movl	20(%ebp), %eax
	addl	%ebx, %eax
	subl	$4, %esp
	pushl	%ecx
	pushl	%edx
	pushl	%eax
	call	_Z11putpixeloneiii
	addl	$16, %esp
	subl	$8, %esp
	leal	16(%ebp), %eax
	pushl	%eax
	leal	12(%ebp), %eax
	pushl	%eax
	call	_ZSt4swapIiEvRT_S1_
	addl	$16, %esp
	subl	$8, %esp
	leal	12(%ebp), %eax
	pushl	%eax
	leal	8(%ebp), %eax
	pushl	%eax
	call	_ZSt4swapIiEvRT_S1_
	addl	$16, %esp
	addl	$1, -24(%ebp)
	jmp	.L16
.L15:
	movl	$0, -20(%ebp)
.L18:
	cmpl	$2, -20(%ebp)
	jg	.L17
	movl	16(%ebp), %eax
	movl	28(%ebp), %edx
	movl	%edx, %ecx
	subl	%eax, %ecx
	movl	12(%ebp), %edx
	movl	24(%ebp), %eax
	addl	%eax, %edx
	movl	8(%ebp), %eax
	movl	20(%ebp), %ebx
	subl	%eax, %ebx
	movl	%ebx, %eax
	subl	$4, %esp
	pushl	%ecx
	pushl	%edx
	pushl	%eax
	call	_Z11putpixeloneiii
	addl	$16, %esp
	subl	$8, %esp
	leal	16(%ebp), %eax
	pushl	%eax
	leal	12(%ebp), %eax
	pushl	%eax
	call	_ZSt4swapIiEvRT_S1_
	addl	$16, %esp
	subl	$8, %esp
	leal	12(%ebp), %eax
	pushl	%eax
	leal	8(%ebp), %eax
	pushl	%eax
	call	_ZSt4swapIiEvRT_S1_
	addl	$16, %esp
	addl	$1, -20(%ebp)
	jmp	.L18
.L17:
	movl	$0, -16(%ebp)
.L20:
	cmpl	$2, -16(%ebp)
	jg	.L19
	movl	16(%ebp), %eax
	movl	28(%ebp), %edx
	movl	%edx, %ecx
	subl	%eax, %ecx
	movl	12(%ebp), %eax
	movl	24(%ebp), %edx
	subl	%eax, %edx
	movl	8(%ebp), %ebx
	movl	20(%ebp), %eax
	addl	%ebx, %eax
	subl	$4, %esp
	pushl	%ecx
	pushl	%edx
	pushl	%eax
	call	_Z11putpixeloneiii
	addl	$16, %esp
	subl	$8, %esp
	leal	16(%ebp), %eax
	pushl	%eax
	leal	12(%ebp), %eax
	pushl	%eax
	call	_ZSt4swapIiEvRT_S1_
	addl	$16, %esp
	subl	$8, %esp
	leal	12(%ebp), %eax
	pushl	%eax
	leal	8(%ebp), %eax
	pushl	%eax
	call	_ZSt4swapIiEvRT_S1_
	addl	$16, %esp
	addl	$1, -16(%ebp)
	jmp	.L20
.L19:
	movl	$0, -12(%ebp)
.L22:
	cmpl	$2, -12(%ebp)
	jg	.L23
	movl	16(%ebp), %eax
	movl	28(%ebp), %edx
	movl	%edx, %ecx
	subl	%eax, %ecx
	movl	12(%ebp), %eax
	movl	24(%ebp), %edx
	subl	%eax, %edx
	movl	8(%ebp), %eax
	movl	20(%ebp), %ebx
	subl	%eax, %ebx
	movl	%ebx, %eax
	subl	$4, %esp
	pushl	%ecx
	pushl	%edx
	pushl	%eax
	call	_Z11putpixeloneiii
	addl	$16, %esp
	subl	$8, %esp
	leal	16(%ebp), %eax
	pushl	%eax
	leal	12(%ebp), %eax
	pushl	%eax
	call	_ZSt4swapIiEvRT_S1_
	addl	$16, %esp
	subl	$8, %esp
	leal	12(%ebp), %eax
	pushl	%eax
	leal	8(%ebp), %eax
	pushl	%eax
	call	_ZSt4swapIiEvRT_S1_
	addl	$16, %esp
	addl	$1, -12(%ebp)
	jmp	.L22
.L23:
	nop
	movl	-4(%ebp), %ebx
	leave
	ret
	.size	_Z14putpixeldoubleiiiiii, .-_Z14putpixeldoubleiiiiii
	.globl	_Z14putpixelsingleiiiiii
	.type	_Z14putpixelsingleiiiiii, @function
_Z14putpixelsingleiiiiii:
	pushl	%ebp
	movl	%esp, %ebp
	pushl	%ebx
	subl	$4, %esp
	movl	16(%ebp), %edx
	movl	28(%ebp), %eax
	leal	(%edx,%eax), %ecx
	movl	12(%ebp), %edx
	movl	24(%ebp), %eax
	addl	%eax, %edx
	movl	8(%ebp), %ebx
	movl	20(%ebp), %eax
	addl	%ebx, %eax
	subl	$4, %esp
	pushl	%ecx
	pushl	%edx
	pushl	%eax
	call	_Z11putpixeloneiii
	addl	$16, %esp
	movl	16(%ebp), %edx
	movl	28(%ebp), %eax
	leal	(%edx,%eax), %ecx
	movl	12(%ebp), %edx
	movl	24(%ebp), %eax
	addl	%eax, %edx
	movl	20(%ebp), %eax
	subl	8(%ebp), %eax
	subl	$4, %esp
	pushl	%ecx
	pushl	%edx
	pushl	%eax
	call	_Z11putpixeloneiii
	addl	$16, %esp
	movl	16(%ebp), %edx
	movl	28(%ebp), %eax
	leal	(%edx,%eax), %ecx
	movl	24(%ebp), %eax
	subl	12(%ebp), %eax
	movl	8(%ebp), %ebx
	movl	20(%ebp), %edx
	addl	%ebx, %edx
	subl	$4, %esp
	pushl	%ecx
	pushl	%eax
	pushl	%edx
	call	_Z11putpixeloneiii
	addl	$16, %esp
	movl	16(%ebp), %edx
	movl	28(%ebp), %eax
	leal	(%edx,%eax), %ecx
	movl	24(%ebp), %eax
	subl	12(%ebp), %eax
	movl	%eax, %edx
	movl	20(%ebp), %eax
	subl	8(%ebp), %eax
	subl	$4, %esp
	pushl	%ecx
	pushl	%edx
	pushl	%eax
	call	_Z11putpixeloneiii
	addl	$16, %esp
	movl	28(%ebp), %eax
	subl	16(%ebp), %eax
	movl	12(%ebp), %ecx
	movl	24(%ebp), %edx
	addl	%edx, %ecx
	movl	8(%ebp), %ebx
	movl	20(%ebp), %edx
	addl	%ebx, %edx
	subl	$4, %esp
	pushl	%eax
	pushl	%ecx
	pushl	%edx
	call	_Z11putpixeloneiii
	addl	$16, %esp
	movl	28(%ebp), %eax
	subl	16(%ebp), %eax
	movl	%eax, %edx
	movl	12(%ebp), %ecx
	movl	24(%ebp), %eax
	addl	%eax, %ecx
	movl	20(%ebp), %eax
	subl	8(%ebp), %eax
	subl	$4, %esp
	pushl	%edx
	pushl	%ecx
	pushl	%eax
	call	_Z11putpixeloneiii
	addl	$16, %esp
	movl	28(%ebp), %eax
	subl	16(%ebp), %eax
	movl	%eax, %edx
	movl	24(%ebp), %eax
	subl	12(%ebp), %eax
	movl	8(%ebp), %ebx
	movl	20(%ebp), %ecx
	addl	%ebx, %ecx
	subl	$4, %esp
	pushl	%edx
	pushl	%eax
	pushl	%ecx
	call	_Z11putpixeloneiii
	addl	$16, %esp
	movl	28(%ebp), %eax
	subl	16(%ebp), %eax
	movl	%eax, %ecx
	movl	24(%ebp), %eax
	subl	12(%ebp), %eax
	movl	%eax, %edx
	movl	20(%ebp), %eax
	subl	8(%ebp), %eax
	subl	$4, %esp
	pushl	%ecx
	pushl	%edx
	pushl	%eax
	call	_Z11putpixeloneiii
	addl	$16, %esp
	nop
	movl	-4(%ebp), %ebx
	leave
	ret
	.size	_Z14putpixelsingleiiiiii, .-_Z14putpixelsingleiiiiii
	.globl	_Z13putpixeledge2iiiiii
	.type	_Z13putpixeledge2iiiiii, @function
_Z13putpixeledge2iiiiii:
	pushl	%ebp
	movl	%esp, %ebp
	pushl	%ebx
	subl	$36, %esp
	movl	$0, -40(%ebp)
.L27:
	cmpl	$2, -40(%ebp)
	jg	.L26
	movl	16(%ebp), %edx
	movl	28(%ebp), %eax
	leal	(%edx,%eax), %ecx
	movl	12(%ebp), %edx
	movl	24(%ebp), %eax
	addl	%eax, %edx
	movl	8(%ebp), %ebx
	movl	20(%ebp), %eax
	addl	%ebx, %eax
	subl	$4, %esp
	pushl	%ecx
	pushl	%edx
	pushl	%eax
	call	_Z11putpixeloneiii
	addl	$16, %esp
	subl	$8, %esp
	leal	12(%ebp), %eax
	pushl	%eax
	leal	8(%ebp), %eax
	pushl	%eax
	call	_ZSt4swapIiEvRT_S1_
	addl	$16, %esp
	subl	$8, %esp
	leal	16(%ebp), %eax
	pushl	%eax
	leal	12(%ebp), %eax
	pushl	%eax
	call	_ZSt4swapIiEvRT_S1_
	addl	$16, %esp
	addl	$1, -40(%ebp)
	jmp	.L27
.L26:
	movl	$0, -36(%ebp)
.L29:
	cmpl	$2, -36(%ebp)
	jg	.L28
	movl	16(%ebp), %edx
	movl	28(%ebp), %eax
	leal	(%edx,%eax), %ecx
	movl	12(%ebp), %edx
	movl	24(%ebp), %eax
	addl	%eax, %edx
	movl	8(%ebp), %eax
	movl	20(%ebp), %ebx
	subl	%eax, %ebx
	movl	%ebx, %eax
	subl	$4, %esp
	pushl	%ecx
	pushl	%edx
	pushl	%eax
	call	_Z11putpixeloneiii
	addl	$16, %esp
	subl	$8, %esp
	leal	12(%ebp), %eax
	pushl	%eax
	leal	8(%ebp), %eax
	pushl	%eax
	call	_ZSt4swapIiEvRT_S1_
	addl	$16, %esp
	subl	$8, %esp
	leal	16(%ebp), %eax
	pushl	%eax
	leal	12(%ebp), %eax
	pushl	%eax
	call	_ZSt4swapIiEvRT_S1_
	addl	$16, %esp
	addl	$1, -36(%ebp)
	jmp	.L29
.L28:
	movl	$0, -32(%ebp)
.L31:
	cmpl	$2, -32(%ebp)
	jg	.L30
	movl	16(%ebp), %edx
	movl	28(%ebp), %eax
	leal	(%edx,%eax), %ecx
	movl	12(%ebp), %eax
	movl	24(%ebp), %edx
	subl	%eax, %edx
	movl	8(%ebp), %ebx
	movl	20(%ebp), %eax
	addl	%ebx, %eax
	subl	$4, %esp
	pushl	%ecx
	pushl	%edx
	pushl	%eax
	call	_Z11putpixeloneiii
	addl	$16, %esp
	subl	$8, %esp
	leal	12(%ebp), %eax
	pushl	%eax
	leal	8(%ebp), %eax
	pushl	%eax
	call	_ZSt4swapIiEvRT_S1_
	addl	$16, %esp
	subl	$8, %esp
	leal	16(%ebp), %eax
	pushl	%eax
	leal	12(%ebp), %eax
	pushl	%eax
	call	_ZSt4swapIiEvRT_S1_
	addl	$16, %esp
	addl	$1, -32(%ebp)
	jmp	.L31
.L30:
	movl	$0, -28(%ebp)
.L33:
	cmpl	$2, -28(%ebp)
	jg	.L32
	movl	16(%ebp), %edx
	movl	28(%ebp), %eax
	leal	(%edx,%eax), %ecx
	movl	12(%ebp), %eax
	movl	24(%ebp), %edx
	subl	%eax, %edx
	movl	8(%ebp), %eax
	movl	20(%ebp), %ebx
	subl	%eax, %ebx
	movl	%ebx, %eax
	subl	$4, %esp
	pushl	%ecx
	pushl	%edx
	pushl	%eax
	call	_Z11putpixeloneiii
	addl	$16, %esp
	subl	$8, %esp
	leal	12(%ebp), %eax
	pushl	%eax
	leal	8(%ebp), %eax
	pushl	%eax
	call	_ZSt4swapIiEvRT_S1_
	addl	$16, %esp
	subl	$8, %esp
	leal	16(%ebp), %eax
	pushl	%eax
	leal	12(%ebp), %eax
	pushl	%eax
	call	_ZSt4swapIiEvRT_S1_
	addl	$16, %esp
	addl	$1, -28(%ebp)
	jmp	.L33
.L32:
	movl	$0, -24(%ebp)
.L35:
	cmpl	$2, -24(%ebp)
	jg	.L34
	movl	16(%ebp), %eax
	movl	28(%ebp), %edx
	movl	%edx, %ecx
	subl	%eax, %ecx
	movl	12(%ebp), %edx
	movl	24(%ebp), %eax
	addl	%eax, %edx
	movl	8(%ebp), %ebx
	movl	20(%ebp), %eax
	addl	%ebx, %eax
	subl	$4, %esp
	pushl	%ecx
	pushl	%edx
	pushl	%eax
	call	_Z11putpixeloneiii
	addl	$16, %esp
	subl	$8, %esp
	leal	12(%ebp), %eax
	pushl	%eax
	leal	8(%ebp), %eax
	pushl	%eax
	call	_ZSt4swapIiEvRT_S1_
	addl	$16, %esp
	subl	$8, %esp
	leal	16(%ebp), %eax
	pushl	%eax
	leal	12(%ebp), %eax
	pushl	%eax
	call	_ZSt4swapIiEvRT_S1_
	addl	$16, %esp
	addl	$1, -24(%ebp)
	jmp	.L35
.L34:
	movl	$0, -20(%ebp)
.L37:
	cmpl	$2, -20(%ebp)
	jg	.L36
	movl	16(%ebp), %eax
	movl	28(%ebp), %edx
	movl	%edx, %ecx
	subl	%eax, %ecx
	movl	12(%ebp), %edx
	movl	24(%ebp), %eax
	addl	%eax, %edx
	movl	8(%ebp), %eax
	movl	20(%ebp), %ebx
	subl	%eax, %ebx
	movl	%ebx, %eax
	subl	$4, %esp
	pushl	%ecx
	pushl	%edx
	pushl	%eax
	call	_Z11putpixeloneiii
	addl	$16, %esp
	subl	$8, %esp
	leal	12(%ebp), %eax
	pushl	%eax
	leal	8(%ebp), %eax
	pushl	%eax
	call	_ZSt4swapIiEvRT_S1_
	addl	$16, %esp
	subl	$8, %esp
	leal	16(%ebp), %eax
	pushl	%eax
	leal	12(%ebp), %eax
	pushl	%eax
	call	_ZSt4swapIiEvRT_S1_
	addl	$16, %esp
	addl	$1, -20(%ebp)
	jmp	.L37
.L36:
	movl	$0, -16(%ebp)
.L39:
	cmpl	$2, -16(%ebp)
	jg	.L38
	movl	16(%ebp), %eax
	movl	28(%ebp), %edx
	movl	%edx, %ecx
	subl	%eax, %ecx
	movl	12(%ebp), %eax
	movl	24(%ebp), %edx
	subl	%eax, %edx
	movl	8(%ebp), %ebx
	movl	20(%ebp), %eax
	addl	%ebx, %eax
	subl	$4, %esp
	pushl	%ecx
	pushl	%edx
	pushl	%eax
	call	_Z11putpixeloneiii
	addl	$16, %esp
	subl	$8, %esp
	leal	12(%ebp), %eax
	pushl	%eax
	leal	8(%ebp), %eax
	pushl	%eax
	call	_ZSt4swapIiEvRT_S1_
	addl	$16, %esp
	subl	$8, %esp
	leal	16(%ebp), %eax
	pushl	%eax
	leal	12(%ebp), %eax
	pushl	%eax
	call	_ZSt4swapIiEvRT_S1_
	addl	$16, %esp
	addl	$1, -16(%ebp)
	jmp	.L39
.L38:
	movl	$0, -12(%ebp)
.L41:
	cmpl	$2, -12(%ebp)
	jg	.L42
	movl	16(%ebp), %eax
	movl	28(%ebp), %edx
	movl	%edx, %ecx
	subl	%eax, %ecx
	movl	12(%ebp), %eax
	movl	24(%ebp), %edx
	subl	%eax, %edx
	movl	8(%ebp), %eax
	movl	20(%ebp), %ebx
	subl	%eax, %ebx
	movl	%ebx, %eax
	subl	$4, %esp
	pushl	%ecx
	pushl	%edx
	pushl	%eax
	call	_Z11putpixeloneiii
	addl	$16, %esp
	subl	$8, %esp
	leal	12(%ebp), %eax
	pushl	%eax
	leal	8(%ebp), %eax
	pushl	%eax
	call	_ZSt4swapIiEvRT_S1_
	addl	$16, %esp
	subl	$8, %esp
	leal	16(%ebp), %eax
	pushl	%eax
	leal	12(%ebp), %eax
	pushl	%eax
	call	_ZSt4swapIiEvRT_S1_
	addl	$16, %esp
	addl	$1, -12(%ebp)
	jmp	.L41
.L42:
	nop
	movl	-4(%ebp), %ebx
	leave
	ret
	.size	_Z13putpixeledge2iiiiii, .-_Z13putpixeledge2iiiiii
	.globl	_Z13putpixeledge1iiiiii
	.type	_Z13putpixeledge1iiiiii, @function
_Z13putpixeledge1iiiiii:
	pushl	%ebp
	movl	%esp, %ebp
	pushl	%ebx
	subl	$4, %esp
	movl	16(%ebp), %edx
	movl	28(%ebp), %eax
	leal	(%edx,%eax), %ecx
	movl	12(%ebp), %edx
	movl	24(%ebp), %eax
	addl	%eax, %edx
	movl	8(%ebp), %ebx
	movl	20(%ebp), %eax
	addl	%ebx, %eax
	subl	$4, %esp
	pushl	%ecx
	pushl	%edx
	pushl	%eax
	call	_Z11putpixeloneiii
	addl	$16, %esp
	movl	12(%ebp), %edx
	movl	28(%ebp), %eax
	leal	(%edx,%eax), %ecx
	movl	16(%ebp), %edx
	movl	24(%ebp), %eax
	addl	%eax, %edx
	movl	8(%ebp), %ebx
	movl	20(%ebp), %eax
	addl	%ebx, %eax
	subl	$4, %esp
	pushl	%ecx
	pushl	%edx
	pushl	%eax
	call	_Z11putpixeloneiii
	addl	$16, %esp
	movl	16(%ebp), %edx
	movl	28(%ebp), %eax
	leal	(%edx,%eax), %ecx
	movl	24(%ebp), %eax
	subl	12(%ebp), %eax
	movl	8(%ebp), %ebx
	movl	20(%ebp), %edx
	addl	%ebx, %edx
	subl	$4, %esp
	pushl	%ecx
	pushl	%eax
	pushl	%edx
	call	_Z11putpixeloneiii
	addl	$16, %esp
	movl	28(%ebp), %eax
	subl	16(%ebp), %eax
	movl	12(%ebp), %ecx
	movl	24(%ebp), %edx
	addl	%edx, %ecx
	movl	8(%ebp), %ebx
	movl	20(%ebp), %edx
	addl	%ebx, %edx
	subl	$4, %esp
	pushl	%eax
	pushl	%ecx
	pushl	%edx
	call	_Z11putpixeloneiii
	addl	$16, %esp
	movl	28(%ebp), %eax
	subl	16(%ebp), %eax
	movl	%eax, %edx
	movl	24(%ebp), %eax
	subl	12(%ebp), %eax
	movl	8(%ebp), %ebx
	movl	20(%ebp), %ecx
	addl	%ebx, %ecx
	subl	$4, %esp
	pushl	%edx
	pushl	%eax
	pushl	%ecx
	call	_Z11putpixeloneiii
	addl	$16, %esp
	movl	12(%ebp), %edx
	movl	28(%ebp), %eax
	leal	(%edx,%eax), %ecx
	movl	24(%ebp), %eax
	subl	16(%ebp), %eax
	movl	8(%ebp), %ebx
	movl	20(%ebp), %edx
	addl	%ebx, %edx
	subl	$4, %esp
	pushl	%ecx
	pushl	%eax
	pushl	%edx
	call	_Z11putpixeloneiii
	addl	$16, %esp
	movl	28(%ebp), %eax
	subl	12(%ebp), %eax
	movl	16(%ebp), %ecx
	movl	24(%ebp), %edx
	addl	%edx, %ecx
	movl	8(%ebp), %ebx
	movl	20(%ebp), %edx
	addl	%ebx, %edx
	subl	$4, %esp
	pushl	%eax
	pushl	%ecx
	pushl	%edx
	call	_Z11putpixeloneiii
	addl	$16, %esp
	movl	28(%ebp), %eax
	subl	12(%ebp), %eax
	movl	%eax, %edx
	movl	24(%ebp), %eax
	subl	16(%ebp), %eax
	movl	8(%ebp), %ebx
	movl	20(%ebp), %ecx
	addl	%ebx, %ecx
	subl	$4, %esp
	pushl	%edx
	pushl	%eax
	pushl	%ecx
	call	_Z11putpixeloneiii
	addl	$16, %esp
	movl	8(%ebp), %edx
	movl	28(%ebp), %eax
	leal	(%edx,%eax), %ecx
	movl	16(%ebp), %edx
	movl	24(%ebp), %eax
	addl	%eax, %edx
	movl	12(%ebp), %ebx
	movl	20(%ebp), %eax
	addl	%ebx, %eax
	subl	$4, %esp
	pushl	%ecx
	pushl	%edx
	pushl	%eax
	call	_Z11putpixeloneiii
	addl	$16, %esp
	movl	16(%ebp), %edx
	movl	28(%ebp), %eax
	leal	(%edx,%eax), %ecx
	movl	8(%ebp), %edx
	movl	24(%ebp), %eax
	addl	%eax, %edx
	movl	12(%ebp), %ebx
	movl	20(%ebp), %eax
	addl	%ebx, %eax
	subl	$4, %esp
	pushl	%ecx
	pushl	%edx
	pushl	%eax
	call	_Z11putpixeloneiii
	addl	$16, %esp
	movl	8(%ebp), %edx
	movl	28(%ebp), %eax
	leal	(%edx,%eax), %ecx
	movl	24(%ebp), %eax
	subl	16(%ebp), %eax
	movl	12(%ebp), %ebx
	movl	20(%ebp), %edx
	addl	%ebx, %edx
	subl	$4, %esp
	pushl	%ecx
	pushl	%eax
	pushl	%edx
	call	_Z11putpixeloneiii
	addl	$16, %esp
	movl	28(%ebp), %eax
	subl	8(%ebp), %eax
	movl	16(%ebp), %ecx
	movl	24(%ebp), %edx
	addl	%edx, %ecx
	movl	12(%ebp), %ebx
	movl	20(%ebp), %edx
	addl	%ebx, %edx
	subl	$4, %esp
	pushl	%eax
	pushl	%ecx
	pushl	%edx
	call	_Z11putpixeloneiii
	addl	$16, %esp
	movl	28(%ebp), %eax
	subl	8(%ebp), %eax
	movl	%eax, %edx
	movl	24(%ebp), %eax
	subl	16(%ebp), %eax
	movl	12(%ebp), %ebx
	movl	20(%ebp), %ecx
	addl	%ebx, %ecx
	subl	$4, %esp
	pushl	%edx
	pushl	%eax
	pushl	%ecx
	call	_Z11putpixeloneiii
	addl	$16, %esp
	movl	28(%ebp), %eax
	subl	16(%ebp), %eax
	movl	8(%ebp), %ecx
	movl	24(%ebp), %edx
	addl	%edx, %ecx
	movl	12(%ebp), %ebx
	movl	20(%ebp), %edx
	addl	%ebx, %edx
	subl	$4, %esp
	pushl	%eax
	pushl	%ecx
	pushl	%edx
	call	_Z11putpixeloneiii
	addl	$16, %esp
	movl	16(%ebp), %edx
	movl	28(%ebp), %eax
	leal	(%edx,%eax), %ecx
	movl	24(%ebp), %eax
	subl	8(%ebp), %eax
	movl	12(%ebp), %ebx
	movl	20(%ebp), %edx
	addl	%ebx, %edx
	subl	$4, %esp
	pushl	%ecx
	pushl	%eax
	pushl	%edx
	call	_Z11putpixeloneiii
	addl	$16, %esp
	movl	28(%ebp), %eax
	subl	16(%ebp), %eax
	movl	%eax, %edx
	movl	24(%ebp), %eax
	subl	8(%ebp), %eax
	movl	12(%ebp), %ebx
	movl	20(%ebp), %ecx
	addl	%ebx, %ecx
	subl	$4, %esp
	pushl	%edx
	pushl	%eax
	pushl	%ecx
	call	_Z11putpixeloneiii
	addl	$16, %esp
	movl	12(%ebp), %edx
	movl	28(%ebp), %eax
	leal	(%edx,%eax), %ecx
	movl	8(%ebp), %edx
	movl	24(%ebp), %eax
	addl	%eax, %edx
	movl	16(%ebp), %ebx
	movl	20(%ebp), %eax
	addl	%ebx, %eax
	subl	$4, %esp
	pushl	%ecx
	pushl	%edx
	pushl	%eax
	call	_Z11putpixeloneiii
	addl	$16, %esp
	movl	12(%ebp), %edx
	movl	28(%ebp), %eax
	leal	(%edx,%eax), %ecx
	movl	24(%ebp), %eax
	subl	8(%ebp), %eax
	movl	16(%ebp), %ebx
	movl	20(%ebp), %edx
	addl	%ebx, %edx
	subl	$4, %esp
	pushl	%ecx
	pushl	%eax
	pushl	%edx
	call	_Z11putpixeloneiii
	addl	$16, %esp
	movl	28(%ebp), %eax
	subl	12(%ebp), %eax
	movl	8(%ebp), %ecx
	movl	24(%ebp), %edx
	addl	%edx, %ecx
	movl	16(%ebp), %ebx
	movl	20(%ebp), %edx
	addl	%ebx, %edx
	subl	$4, %esp
	pushl	%eax
	pushl	%ecx
	pushl	%edx
	call	_Z11putpixeloneiii
	addl	$16, %esp
	movl	28(%ebp), %eax
	subl	12(%ebp), %eax
	movl	%eax, %edx
	movl	24(%ebp), %eax
	subl	8(%ebp), %eax
	movl	16(%ebp), %ebx
	movl	20(%ebp), %ecx
	addl	%ebx, %ecx
	subl	$4, %esp
	pushl	%edx
	pushl	%eax
	pushl	%ecx
	call	_Z11putpixeloneiii
	addl	$16, %esp
	movl	8(%ebp), %edx
	movl	28(%ebp), %eax
	leal	(%edx,%eax), %ecx
	movl	12(%ebp), %edx
	movl	24(%ebp), %eax
	addl	%eax, %edx
	movl	16(%ebp), %ebx
	movl	20(%ebp), %eax
	addl	%ebx, %eax
	subl	$4, %esp
	pushl	%ecx
	pushl	%edx
	pushl	%eax
	call	_Z11putpixeloneiii
	addl	$16, %esp
	movl	8(%ebp), %edx
	movl	28(%ebp), %eax
	leal	(%edx,%eax), %ecx
	movl	24(%ebp), %eax
	subl	12(%ebp), %eax
	movl	16(%ebp), %ebx
	movl	20(%ebp), %edx
	addl	%ebx, %edx
	subl	$4, %esp
	pushl	%ecx
	pushl	%eax
	pushl	%edx
	call	_Z11putpixeloneiii
	addl	$16, %esp
	movl	28(%ebp), %eax
	subl	8(%ebp), %eax
	movl	12(%ebp), %ecx
	movl	24(%ebp), %edx
	addl	%edx, %ecx
	movl	16(%ebp), %ebx
	movl	20(%ebp), %edx
	addl	%ebx, %edx
	subl	$4, %esp
	pushl	%eax
	pushl	%ecx
	pushl	%edx
	call	_Z11putpixeloneiii
	addl	$16, %esp
	movl	28(%ebp), %eax
	subl	8(%ebp), %eax
	movl	%eax, %edx
	movl	24(%ebp), %eax
	subl	12(%ebp), %eax
	movl	16(%ebp), %ebx
	movl	20(%ebp), %ecx
	addl	%ebx, %ecx
	subl	$4, %esp
	pushl	%edx
	pushl	%eax
	pushl	%ecx
	call	_Z11putpixeloneiii
	addl	$16, %esp
	nop
	movl	-4(%ebp), %ebx
	leave
	ret
	.size	_Z13putpixeledge1iiiiii, .-_Z13putpixeledge1iiiiii
	.globl	_Z11putpixelalliiiiii
	.type	_Z11putpixelalliiiiii, @function
_Z11putpixelalliiiiii:
	pushl	%ebp
	movl	%esp, %ebp
	pushl	%ebx
	subl	$4, %esp
	movl	16(%ebp), %edx
	movl	28(%ebp), %eax
	leal	(%edx,%eax), %ecx
	movl	12(%ebp), %edx
	movl	24(%ebp), %eax
	addl	%eax, %edx
	movl	8(%ebp), %ebx
	movl	20(%ebp), %eax
	addl	%ebx, %eax
	subl	$4, %esp
	pushl	%ecx
	pushl	%edx
	pushl	%eax
	call	_Z11putpixeloneiii
	addl	$16, %esp
	movl	16(%ebp), %edx
	movl	28(%ebp), %eax
	leal	(%edx,%eax), %ecx
	movl	8(%ebp), %edx
	movl	24(%ebp), %eax
	addl	%eax, %edx
	movl	12(%ebp), %ebx
	movl	20(%ebp), %eax
	addl	%ebx, %eax
	subl	$4, %esp
	pushl	%ecx
	pushl	%edx
	pushl	%eax
	call	_Z11putpixeloneiii
	addl	$16, %esp
	movl	8(%ebp), %edx
	movl	28(%ebp), %eax
	leal	(%edx,%eax), %ecx
	movl	12(%ebp), %edx
	movl	24(%ebp), %eax
	addl	%eax, %edx
	movl	16(%ebp), %ebx
	movl	20(%ebp), %eax
	addl	%ebx, %eax
	subl	$4, %esp
	pushl	%ecx
	pushl	%edx
	pushl	%eax
	call	_Z11putpixeloneiii
	addl	$16, %esp
	movl	12(%ebp), %edx
	movl	28(%ebp), %eax
	leal	(%edx,%eax), %ecx
	movl	16(%ebp), %edx
	movl	24(%ebp), %eax
	addl	%eax, %edx
	movl	8(%ebp), %ebx
	movl	20(%ebp), %eax
	addl	%ebx, %eax
	subl	$4, %esp
	pushl	%ecx
	pushl	%edx
	pushl	%eax
	call	_Z11putpixeloneiii
	addl	$16, %esp
	movl	12(%ebp), %edx
	movl	28(%ebp), %eax
	leal	(%edx,%eax), %ecx
	movl	8(%ebp), %edx
	movl	24(%ebp), %eax
	addl	%eax, %edx
	movl	16(%ebp), %ebx
	movl	20(%ebp), %eax
	addl	%ebx, %eax
	subl	$4, %esp
	pushl	%ecx
	pushl	%edx
	pushl	%eax
	call	_Z11putpixeloneiii
	addl	$16, %esp
	movl	8(%ebp), %edx
	movl	28(%ebp), %eax
	leal	(%edx,%eax), %ecx
	movl	16(%ebp), %edx
	movl	24(%ebp), %eax
	addl	%eax, %edx
	movl	12(%ebp), %ebx
	movl	20(%ebp), %eax
	addl	%ebx, %eax
	subl	$4, %esp
	pushl	%ecx
	pushl	%edx
	pushl	%eax
	call	_Z11putpixeloneiii
	addl	$16, %esp
	movl	16(%ebp), %edx
	movl	28(%ebp), %eax
	leal	(%edx,%eax), %ecx
	movl	24(%ebp), %eax
	subl	12(%ebp), %eax
	movl	%eax, %edx
	movl	20(%ebp), %eax
	subl	8(%ebp), %eax
	subl	$4, %esp
	pushl	%ecx
	pushl	%edx
	pushl	%eax
	call	_Z11putpixeloneiii
	addl	$16, %esp
	movl	16(%ebp), %edx
	movl	28(%ebp), %eax
	leal	(%edx,%eax), %ecx
	movl	24(%ebp), %eax
	subl	8(%ebp), %eax
	movl	%eax, %edx
	movl	20(%ebp), %eax
	subl	12(%ebp), %eax
	subl	$4, %esp
	pushl	%ecx
	pushl	%edx
	pushl	%eax
	call	_Z11putpixeloneiii
	addl	$16, %esp
	movl	28(%ebp), %eax
	subl	8(%ebp), %eax
	movl	%eax, %edx
	movl	24(%ebp), %eax
	subl	12(%ebp), %eax
	movl	16(%ebp), %ebx
	movl	20(%ebp), %ecx
	addl	%ebx, %ecx
	subl	$4, %esp
	pushl	%edx
	pushl	%eax
	pushl	%ecx
	call	_Z11putpixeloneiii
	addl	$16, %esp
	movl	28(%ebp), %eax
	subl	12(%ebp), %eax
	movl	%eax, %edx
	movl	16(%ebp), %ecx
	movl	24(%ebp), %eax
	addl	%eax, %ecx
	movl	20(%ebp), %eax
	subl	8(%ebp), %eax
	subl	$4, %esp
	pushl	%edx
	pushl	%ecx
	pushl	%eax
	call	_Z11putpixeloneiii
	addl	$16, %esp
	movl	28(%ebp), %eax
	subl	12(%ebp), %eax
	movl	%eax, %edx
	movl	24(%ebp), %eax
	subl	8(%ebp), %eax
	movl	16(%ebp), %ebx
	movl	20(%ebp), %ecx
	addl	%ebx, %ecx
	subl	$4, %esp
	pushl	%edx
	pushl	%eax
	pushl	%ecx
	call	_Z11putpixeloneiii
	addl	$16, %esp
	movl	28(%ebp), %eax
	subl	8(%ebp), %eax
	movl	%eax, %edx
	movl	16(%ebp), %ecx
	movl	24(%ebp), %eax
	addl	%eax, %ecx
	movl	20(%ebp), %eax
	subl	12(%ebp), %eax
	subl	$4, %esp
	pushl	%edx
	pushl	%ecx
	pushl	%eax
	call	_Z11putpixeloneiii
	addl	$16, %esp
	movl	28(%ebp), %eax
	subl	16(%ebp), %eax
	movl	%eax, %edx
	movl	24(%ebp), %eax
	subl	12(%ebp), %eax
	movl	8(%ebp), %ebx
	movl	20(%ebp), %ecx
	addl	%ebx, %ecx
	subl	$4, %esp
	pushl	%edx
	pushl	%eax
	pushl	%ecx
	call	_Z11putpixeloneiii
	addl	$16, %esp
	movl	28(%ebp), %eax
	subl	16(%ebp), %eax
	movl	%eax, %edx
	movl	8(%ebp), %ecx
	movl	24(%ebp), %eax
	addl	%eax, %ecx
	movl	20(%ebp), %eax
	subl	12(%ebp), %eax
	subl	$4, %esp
	pushl	%edx
	pushl	%ecx
	pushl	%eax
	call	_Z11putpixeloneiii
	addl	$16, %esp
	movl	8(%ebp), %edx
	movl	28(%ebp), %eax
	leal	(%edx,%eax), %ecx
	movl	24(%ebp), %eax
	subl	12(%ebp), %eax
	movl	%eax, %edx
	movl	20(%ebp), %eax
	subl	16(%ebp), %eax
	subl	$4, %esp
	pushl	%ecx
	pushl	%edx
	pushl	%eax
	call	_Z11putpixeloneiii
	addl	$16, %esp
	movl	28(%ebp), %eax
	subl	12(%ebp), %eax
	movl	%eax, %edx
	movl	24(%ebp), %eax
	subl	16(%ebp), %eax
	movl	8(%ebp), %ebx
	movl	20(%ebp), %ecx
	addl	%ebx, %ecx
	subl	$4, %esp
	pushl	%edx
	pushl	%eax
	pushl	%ecx
	call	_Z11putpixeloneiii
	addl	$16, %esp
	movl	28(%ebp), %eax
	subl	12(%ebp), %eax
	movl	%eax, %edx
	movl	8(%ebp), %ecx
	movl	24(%ebp), %eax
	addl	%eax, %ecx
	movl	20(%ebp), %eax
	subl	16(%ebp), %eax
	subl	$4, %esp
	pushl	%edx
	pushl	%ecx
	pushl	%eax
	call	_Z11putpixeloneiii
	addl	$16, %esp
	movl	8(%ebp), %edx
	movl	28(%ebp), %eax
	leal	(%edx,%eax), %ecx
	movl	24(%ebp), %eax
	subl	16(%ebp), %eax
	movl	%eax, %edx
	movl	20(%ebp), %eax
	subl	12(%ebp), %eax
	subl	$4, %esp
	pushl	%ecx
	pushl	%edx
	pushl	%eax
	call	_Z11putpixeloneiii
	addl	$16, %esp
	movl	28(%ebp), %eax
	subl	16(%ebp), %eax
	movl	%eax, %edx
	movl	12(%ebp), %ecx
	movl	24(%ebp), %eax
	addl	%eax, %ecx
	movl	20(%ebp), %eax
	subl	8(%ebp), %eax
	subl	$4, %esp
	pushl	%edx
	pushl	%ecx
	pushl	%eax
	call	_Z11putpixeloneiii
	addl	$16, %esp
	movl	28(%ebp), %eax
	subl	16(%ebp), %eax
	movl	%eax, %edx
	movl	24(%ebp), %eax
	subl	8(%ebp), %eax
	movl	12(%ebp), %ebx
	movl	20(%ebp), %ecx
	addl	%ebx, %ecx
	subl	$4, %esp
	pushl	%edx
	pushl	%eax
	pushl	%ecx
	call	_Z11putpixeloneiii
	addl	$16, %esp
	movl	28(%ebp), %eax
	subl	8(%ebp), %eax
	movl	%eax, %edx
	movl	12(%ebp), %ecx
	movl	24(%ebp), %eax
	addl	%eax, %ecx
	movl	20(%ebp), %eax
	subl	16(%ebp), %eax
	subl	$4, %esp
	pushl	%edx
	pushl	%ecx
	pushl	%eax
	call	_Z11putpixeloneiii
	addl	$16, %esp
	movl	12(%ebp), %edx
	movl	28(%ebp), %eax
	leal	(%edx,%eax), %ecx
	movl	24(%ebp), %eax
	subl	16(%ebp), %eax
	movl	%eax, %edx
	movl	20(%ebp), %eax
	subl	8(%ebp), %eax
	subl	$4, %esp
	pushl	%ecx
	pushl	%edx
	pushl	%eax
	call	_Z11putpixeloneiii
	addl	$16, %esp
	movl	12(%ebp), %edx
	movl	28(%ebp), %eax
	leal	(%edx,%eax), %ecx
	movl	24(%ebp), %eax
	subl	8(%ebp), %eax
	movl	%eax, %edx
	movl	20(%ebp), %eax
	subl	16(%ebp), %eax
	subl	$4, %esp
	pushl	%ecx
	pushl	%edx
	pushl	%eax
	call	_Z11putpixeloneiii
	addl	$16, %esp
	movl	28(%ebp), %eax
	subl	8(%ebp), %eax
	movl	%eax, %edx
	movl	24(%ebp), %eax
	subl	16(%ebp), %eax
	movl	12(%ebp), %ebx
	movl	20(%ebp), %ecx
	addl	%ebx, %ecx
	subl	$4, %esp
	pushl	%edx
	pushl	%eax
	pushl	%ecx
	call	_Z11putpixeloneiii
	addl	$16, %esp
	movl	16(%ebp), %edx
	movl	28(%ebp), %eax
	leal	(%edx,%eax), %ecx
	movl	12(%ebp), %edx
	movl	24(%ebp), %eax
	addl	%eax, %edx
	movl	20(%ebp), %eax
	subl	8(%ebp), %eax
	subl	$4, %esp
	pushl	%ecx
	pushl	%edx
	pushl	%eax
	call	_Z11putpixeloneiii
	addl	$16, %esp
	movl	16(%ebp), %edx
	movl	28(%ebp), %eax
	leal	(%edx,%eax), %ecx
	movl	24(%ebp), %eax
	subl	8(%ebp), %eax
	movl	12(%ebp), %ebx
	movl	20(%ebp), %edx
	addl	%ebx, %edx
	subl	$4, %esp
	pushl	%ecx
	pushl	%eax
	pushl	%edx
	call	_Z11putpixeloneiii
	addl	$16, %esp
	movl	28(%ebp), %eax
	subl	8(%ebp), %eax
	movl	12(%ebp), %ecx
	movl	24(%ebp), %edx
	addl	%edx, %ecx
	movl	16(%ebp), %ebx
	movl	20(%ebp), %edx
	addl	%ebx, %edx
	subl	$4, %esp
	pushl	%eax
	pushl	%ecx
	pushl	%edx
	call	_Z11putpixeloneiii
	addl	$16, %esp
	movl	12(%ebp), %edx
	movl	28(%ebp), %eax
	leal	(%edx,%eax), %ecx
	movl	16(%ebp), %edx
	movl	24(%ebp), %eax
	addl	%eax, %edx
	movl	20(%ebp), %eax
	subl	8(%ebp), %eax
	subl	$4, %esp
	pushl	%ecx
	pushl	%edx
	pushl	%eax
	call	_Z11putpixeloneiii
	addl	$16, %esp
	movl	12(%ebp), %edx
	movl	28(%ebp), %eax
	leal	(%edx,%eax), %ecx
	movl	24(%ebp), %eax
	subl	8(%ebp), %eax
	movl	16(%ebp), %ebx
	movl	20(%ebp), %edx
	addl	%ebx, %edx
	subl	$4, %esp
	pushl	%ecx
	pushl	%eax
	pushl	%edx
	call	_Z11putpixeloneiii
	addl	$16, %esp
	movl	28(%ebp), %eax
	subl	8(%ebp), %eax
	movl	16(%ebp), %ecx
	movl	24(%ebp), %edx
	addl	%edx, %ecx
	movl	12(%ebp), %ebx
	movl	20(%ebp), %edx
	addl	%ebx, %edx
	subl	$4, %esp
	pushl	%eax
	pushl	%ecx
	pushl	%edx
	call	_Z11putpixeloneiii
	addl	$16, %esp
	movl	16(%ebp), %edx
	movl	28(%ebp), %eax
	leal	(%edx,%eax), %ecx
	movl	24(%ebp), %eax
	subl	12(%ebp), %eax
	movl	8(%ebp), %ebx
	movl	20(%ebp), %edx
	addl	%ebx, %edx
	subl	$4, %esp
	pushl	%ecx
	pushl	%eax
	pushl	%edx
	call	_Z11putpixeloneiii
	addl	$16, %esp
	movl	16(%ebp), %edx
	movl	28(%ebp), %eax
	leal	(%edx,%eax), %ecx
	movl	8(%ebp), %edx
	movl	24(%ebp), %eax
	addl	%eax, %edx
	movl	20(%ebp), %eax
	subl	12(%ebp), %eax
	subl	$4, %esp
	pushl	%ecx
	pushl	%edx
	pushl	%eax
	call	_Z11putpixeloneiii
	addl	$16, %esp
	movl	8(%ebp), %edx
	movl	28(%ebp), %eax
	leal	(%edx,%eax), %ecx
	movl	24(%ebp), %eax
	subl	12(%ebp), %eax
	movl	16(%ebp), %ebx
	movl	20(%ebp), %edx
	addl	%ebx, %edx
	subl	$4, %esp
	pushl	%ecx
	pushl	%eax
	pushl	%edx
	call	_Z11putpixeloneiii
	addl	$16, %esp
	movl	28(%ebp), %eax
	subl	12(%ebp), %eax
	movl	16(%ebp), %ecx
	movl	24(%ebp), %edx
	addl	%edx, %ecx
	movl	8(%ebp), %ebx
	movl	20(%ebp), %edx
	addl	%ebx, %edx
	subl	$4, %esp
	pushl	%eax
	pushl	%ecx
	pushl	%edx
	call	_Z11putpixeloneiii
	addl	$16, %esp
	movl	28(%ebp), %eax
	subl	12(%ebp), %eax
	movl	8(%ebp), %ecx
	movl	24(%ebp), %edx
	addl	%edx, %ecx
	movl	16(%ebp), %ebx
	movl	20(%ebp), %edx
	addl	%ebx, %edx
	subl	$4, %esp
	pushl	%eax
	pushl	%ecx
	pushl	%edx
	call	_Z11putpixeloneiii
	addl	$16, %esp
	movl	8(%ebp), %edx
	movl	28(%ebp), %eax
	leal	(%edx,%eax), %ecx
	movl	16(%ebp), %edx
	movl	24(%ebp), %eax
	addl	%eax, %edx
	movl	20(%ebp), %eax
	subl	12(%ebp), %eax
	subl	$4, %esp
	pushl	%ecx
	pushl	%edx
	pushl	%eax
	call	_Z11putpixeloneiii
	addl	$16, %esp
	movl	28(%ebp), %eax
	subl	16(%ebp), %eax
	movl	12(%ebp), %ecx
	movl	24(%ebp), %edx
	addl	%edx, %ecx
	movl	8(%ebp), %ebx
	movl	20(%ebp), %edx
	addl	%ebx, %edx
	subl	$4, %esp
	pushl	%eax
	pushl	%ecx
	pushl	%edx
	call	_Z11putpixeloneiii
	addl	$16, %esp
	movl	28(%ebp), %eax
	subl	16(%ebp), %eax
	movl	8(%ebp), %ecx
	movl	24(%ebp), %edx
	addl	%edx, %ecx
	movl	12(%ebp), %ebx
	movl	20(%ebp), %edx
	addl	%ebx, %edx
	subl	$4, %esp
	pushl	%eax
	pushl	%ecx
	pushl	%edx
	call	_Z11putpixeloneiii
	addl	$16, %esp
	movl	8(%ebp), %edx
	movl	28(%ebp), %eax
	leal	(%edx,%eax), %ecx
	movl	12(%ebp), %edx
	movl	24(%ebp), %eax
	addl	%eax, %edx
	movl	20(%ebp), %eax
	subl	16(%ebp), %eax
	subl	$4, %esp
	pushl	%ecx
	pushl	%edx
	pushl	%eax
	call	_Z11putpixeloneiii
	addl	$16, %esp
	movl	12(%ebp), %edx
	movl	28(%ebp), %eax
	leal	(%edx,%eax), %ecx
	movl	24(%ebp), %eax
	subl	16(%ebp), %eax
	movl	8(%ebp), %ebx
	movl	20(%ebp), %edx
	addl	%ebx, %edx
	subl	$4, %esp
	pushl	%ecx
	pushl	%eax
	pushl	%edx
	call	_Z11putpixeloneiii
	addl	$16, %esp
	movl	12(%ebp), %edx
	movl	28(%ebp), %eax
	leal	(%edx,%eax), %ecx
	movl	8(%ebp), %edx
	movl	24(%ebp), %eax
	addl	%eax, %edx
	movl	20(%ebp), %eax
	subl	16(%ebp), %eax
	subl	$4, %esp
	pushl	%ecx
	pushl	%edx
	pushl	%eax
	call	_Z11putpixeloneiii
	addl	$16, %esp
	movl	8(%ebp), %edx
	movl	28(%ebp), %eax
	leal	(%edx,%eax), %ecx
	movl	24(%ebp), %eax
	subl	16(%ebp), %eax
	movl	12(%ebp), %ebx
	movl	20(%ebp), %edx
	addl	%ebx, %edx
	subl	$4, %esp
	pushl	%ecx
	pushl	%eax
	pushl	%edx
	call	_Z11putpixeloneiii
	addl	$16, %esp
	movl	28(%ebp), %eax
	subl	16(%ebp), %eax
	movl	%eax, %ecx
	movl	24(%ebp), %eax
	subl	12(%ebp), %eax
	movl	%eax, %edx
	movl	20(%ebp), %eax
	subl	8(%ebp), %eax
	subl	$4, %esp
	pushl	%ecx
	pushl	%edx
	pushl	%eax
	call	_Z11putpixeloneiii
	addl	$16, %esp
	movl	28(%ebp), %eax
	subl	16(%ebp), %eax
	movl	%eax, %ecx
	movl	24(%ebp), %eax
	subl	8(%ebp), %eax
	movl	%eax, %edx
	movl	20(%ebp), %eax
	subl	12(%ebp), %eax
	subl	$4, %esp
	pushl	%ecx
	pushl	%edx
	pushl	%eax
	call	_Z11putpixeloneiii
	addl	$16, %esp
	movl	28(%ebp), %eax
	subl	8(%ebp), %eax
	movl	%eax, %ecx
	movl	24(%ebp), %eax
	subl	12(%ebp), %eax
	movl	%eax, %edx
	movl	20(%ebp), %eax
	subl	16(%ebp), %eax
	subl	$4, %esp
	pushl	%ecx
	pushl	%edx
	pushl	%eax
	call	_Z11putpixeloneiii
	addl	$16, %esp
	movl	28(%ebp), %eax
	subl	12(%ebp), %eax
	movl	%eax, %ecx
	movl	24(%ebp), %eax
	subl	16(%ebp), %eax
	movl	%eax, %edx
	movl	20(%ebp), %eax
	subl	8(%ebp), %eax
	subl	$4, %esp
	pushl	%ecx
	pushl	%edx
	pushl	%eax
	call	_Z11putpixeloneiii
	addl	$16, %esp
	movl	28(%ebp), %eax
	subl	12(%ebp), %eax
	movl	%eax, %ecx
	movl	24(%ebp), %eax
	subl	8(%ebp), %eax
	movl	%eax, %edx
	movl	20(%ebp), %eax
	subl	16(%ebp), %eax
	subl	$4, %esp
	pushl	%ecx
	pushl	%edx
	pushl	%eax
	call	_Z11putpixeloneiii
	addl	$16, %esp
	movl	28(%ebp), %eax
	subl	8(%ebp), %eax
	movl	%eax, %ecx
	movl	24(%ebp), %eax
	subl	16(%ebp), %eax
	movl	%eax, %edx
	movl	20(%ebp), %eax
	subl	12(%ebp), %eax
	subl	$4, %esp
	pushl	%ecx
	pushl	%edx
	pushl	%eax
	call	_Z11putpixeloneiii
	addl	$16, %esp
	nop
	movl	-4(%ebp), %ebx
	leave
	ret
	.size	_Z11putpixelalliiiiii, .-_Z11putpixelalliiiiii
	.globl	_Z10drawsphereiiii
	.type	_Z10drawsphereiiii, @function
_Z10drawsphereiiii:
	pushl	%ebp
	movl	%esp, %ebp
	subl	$56, %esp
	movl	$0, -48(%ebp)
	movl	$0, -44(%ebp)
	movl	20(%ebp), %eax
	movl	%eax, -40(%ebp)
	movl	-40(%ebp), %eax
	movl	%eax, -36(%ebp)
	movl	$0, -32(%ebp)
	movl	-32(%ebp), %eax
	movl	%eax, -28(%ebp)
	movl	20(%ebp), %eax
	subl	$1, %eax
	movl	%eax, -24(%ebp)
	movl	-24(%ebp), %eax
	movl	%eax, -20(%ebp)
	movl	-24(%ebp), %eax
	addl	%eax, %eax
	movl	%eax, -16(%ebp)
	movl	-16(%ebp), %eax
	movl	%eax, -12(%ebp)
.L59:
	movl	-48(%ebp), %eax
	cmpl	-36(%ebp), %eax
	jg	.L60
.L56:
	movl	-44(%ebp), %eax
	cmpl	-36(%ebp), %eax
	jg	.L47
	movl	-28(%ebp), %eax
	cmpl	-20(%ebp), %eax
	jle	.L48
	subl	$1, -36(%ebp)
	movl	-12(%ebp), %eax
	addl	%eax, -20(%ebp)
	subl	$2, -12(%ebp)
.L48:
	movl	-44(%ebp), %eax
	cmpl	-36(%ebp), %eax
	jg	.L49
	movl	-28(%ebp), %eax
	cmpl	-20(%ebp), %eax
	jne	.L50
	movl	-44(%ebp), %eax
	cmpl	-36(%ebp), %eax
	je	.L49
.L50:
	cmpl	$0, -48(%ebp)
	jne	.L51
	cmpl	$0, -44(%ebp)
	je	.L51
	subl	$8, %esp
	pushl	16(%ebp)
	pushl	12(%ebp)
	pushl	8(%ebp)
	pushl	-36(%ebp)
	pushl	-44(%ebp)
	pushl	-48(%ebp)
	call	_Z13putpixeledge1iiiiii
	addl	$32, %esp
	jmp	.L49
.L51:
	movl	-48(%ebp), %eax
	cmpl	-44(%ebp), %eax
	jne	.L52
	movl	-44(%ebp), %eax
	cmpl	-36(%ebp), %eax
	je	.L52
	cmpl	$0, -48(%ebp)
	je	.L52
	subl	$8, %esp
	pushl	16(%ebp)
	pushl	12(%ebp)
	pushl	8(%ebp)
	pushl	-36(%ebp)
	pushl	-44(%ebp)
	pushl	-48(%ebp)
	call	_Z13putpixeledge2iiiiii
	addl	$32, %esp
	jmp	.L49
.L52:
	movl	-48(%ebp), %eax
	cmpl	-44(%ebp), %eax
	jne	.L53
	movl	-44(%ebp), %eax
	cmpl	-36(%ebp), %eax
	jne	.L53
	subl	$8, %esp
	pushl	16(%ebp)
	pushl	12(%ebp)
	pushl	8(%ebp)
	pushl	-36(%ebp)
	pushl	-44(%ebp)
	pushl	-48(%ebp)
	call	_Z14putpixelsingleiiiiii
	addl	$32, %esp
	jmp	.L49
.L53:
	movl	-44(%ebp), %eax
	cmpl	-36(%ebp), %eax
	jne	.L54
	movl	-48(%ebp), %eax
	cmpl	-36(%ebp), %eax
	jge	.L54
	movl	-48(%ebp), %eax
	cmpl	-44(%ebp), %eax
	jge	.L54
	subl	$8, %esp
	pushl	16(%ebp)
	pushl	12(%ebp)
	pushl	8(%ebp)
	pushl	-36(%ebp)
	pushl	-44(%ebp)
	pushl	-48(%ebp)
	call	_Z14putpixeldoubleiiiiii
	addl	$32, %esp
	jmp	.L49
.L54:
	cmpl	$0, -48(%ebp)
	jne	.L55
	cmpl	$0, -44(%ebp)
	jne	.L55
	subl	$8, %esp
	pushl	16(%ebp)
	pushl	12(%ebp)
	pushl	8(%ebp)
	pushl	-36(%ebp)
	pushl	-44(%ebp)
	pushl	-48(%ebp)
	call	_Z14putpixelmiddleiiiiii
	addl	$32, %esp
	jmp	.L49
.L55:
	subl	$8, %esp
	pushl	16(%ebp)
	pushl	12(%ebp)
	pushl	8(%ebp)
	pushl	-36(%ebp)
	pushl	-44(%ebp)
	pushl	-48(%ebp)
	call	_Z11putpixelalliiiiii
	addl	$32, %esp
.L49:
	movl	-44(%ebp), %eax
	leal	(%eax,%eax), %edx
	movl	-28(%ebp), %eax
	addl	%edx, %eax
	addl	$1, %eax
	movl	%eax, -28(%ebp)
	addl	$1, -44(%ebp)
	jmp	.L56
.L47:
	movl	-48(%ebp), %eax
	leal	0(,%eax,4), %edx
	movl	-32(%ebp), %eax
	addl	%edx, %eax
	addl	$2, %eax
	movl	%eax, -32(%ebp)
	addl	$1, -48(%ebp)
.L58:
	movl	-32(%ebp), %eax
	cmpl	-24(%ebp), %eax
	jle	.L57
	movl	-48(%ebp), %eax
	cmpl	-40(%ebp), %eax
	jg	.L57
	subl	$1, -40(%ebp)
	movl	-16(%ebp), %eax
	addl	%eax, -24(%ebp)
	subl	$2, -16(%ebp)
	jmp	.L58
.L57:
	movl	-48(%ebp), %eax
	movl	%eax, -44(%ebp)
	movl	-40(%ebp), %eax
	movl	%eax, -36(%ebp)
	movl	-24(%ebp), %eax
	movl	%eax, -20(%ebp)
	movl	-16(%ebp), %eax
	movl	%eax, -12(%ebp)
	movl	-32(%ebp), %eax
	movl	%eax, -28(%ebp)
	jmp	.L59
.L60:
	nop
	leave
	ret
	.size	_Z10drawsphereiiii, .-_Z10drawsphereiiii
	.globl	main
	.type	main, @function
main:
	leal	4(%esp), %ecx
	andl	$-16, %esp
	pushl	-4(%ecx)
	pushl	%ebp
	movl	%esp, %ebp
	pushl	%ecx
	subl	$20, %esp
	movl	$10, -24(%ebp)
	movl	$11, -20(%ebp)
	movl	$12, -16(%ebp)
	movl	$22, -12(%ebp)
	pushl	-12(%ebp)
	pushl	-16(%ebp)
	pushl	-20(%ebp)
	pushl	-24(%ebp)
	call	_Z10drawsphereiiii
	addl	$16, %esp
	movl	$0, %eax
	movl	-4(%ebp), %ecx
	leave
	leal	-4(%ecx), %esp
	ret
	.size	main, .-main
	.section	.text._ZNSt3mapIiNSt7__cxx114listISt4pairIiiESaIS3_EEESt4lessIiESaIS2_IKiS5_EEEC2Ev,"axG",@progbits,_ZNSt3mapIiNSt7__cxx114listISt4pairIiiESaIS3_EEESt4lessIiESaIS2_IKiS5_EEEC5Ev,comdat
	.align 2
	.weak	_ZNSt3mapIiNSt7__cxx114listISt4pairIiiESaIS3_EEESt4lessIiESaIS2_IKiS5_EEEC2Ev
	.type	_ZNSt3mapIiNSt7__cxx114listISt4pairIiiESaIS3_EEESt4lessIiESaIS2_IKiS5_EEEC2Ev, @function
_ZNSt3mapIiNSt7__cxx114listISt4pairIiiESaIS3_EEESt4lessIiESaIS2_IKiS5_EEEC2Ev:
	pushl	%ebp
	movl	%esp, %ebp
	subl	$8, %esp
	movl	8(%ebp), %eax
	subl	$12, %esp
	pushl	%eax
	call	_ZNSt8_Rb_treeIiSt4pairIKiNSt7__cxx114listIS0_IiiESaIS4_EEEESt10_Select1stIS7_ESt4lessIiESaIS7_EEC1Ev
	addl	$16, %esp
	nop
	leave
	ret
	.size	_ZNSt3mapIiNSt7__cxx114listISt4pairIiiESaIS3_EEESt4lessIiESaIS2_IKiS5_EEEC2Ev, .-_ZNSt3mapIiNSt7__cxx114listISt4pairIiiESaIS3_EEESt4lessIiESaIS2_IKiS5_EEEC2Ev
	.weak	_ZNSt3mapIiNSt7__cxx114listISt4pairIiiESaIS3_EEESt4lessIiESaIS2_IKiS5_EEEC1Ev
	.set	_ZNSt3mapIiNSt7__cxx114listISt4pairIiiESaIS3_EEESt4lessIiESaIS2_IKiS5_EEEC1Ev,_ZNSt3mapIiNSt7__cxx114listISt4pairIiiESaIS3_EEESt4lessIiESaIS2_IKiS5_EEEC2Ev
	.section	.text._ZNSt17_Rb_tree_iteratorISt4pairIKiNSt7__cxx114listIS0_IiiESaIS4_EEEEEC2Ev,"axG",@progbits,_ZNSt17_Rb_tree_iteratorISt4pairIKiNSt7__cxx114listIS0_IiiESaIS4_EEEEEC5Ev,comdat
	.align 2
	.weak	_ZNSt17_Rb_tree_iteratorISt4pairIKiNSt7__cxx114listIS0_IiiESaIS4_EEEEEC2Ev
	.type	_ZNSt17_Rb_tree_iteratorISt4pairIKiNSt7__cxx114listIS0_IiiESaIS4_EEEEEC2Ev, @function
_ZNSt17_Rb_tree_iteratorISt4pairIKiNSt7__cxx114listIS0_IiiESaIS4_EEEEEC2Ev:
	pushl	%ebp
	movl	%esp, %ebp
	movl	8(%ebp), %eax
	movl	$0, (%eax)
	nop
	popl	%ebp
	ret
	.size	_ZNSt17_Rb_tree_iteratorISt4pairIKiNSt7__cxx114listIS0_IiiESaIS4_EEEEEC2Ev, .-_ZNSt17_Rb_tree_iteratorISt4pairIKiNSt7__cxx114listIS0_IiiESaIS4_EEEEEC2Ev
	.weak	_ZNSt17_Rb_tree_iteratorISt4pairIKiNSt7__cxx114listIS0_IiiESaIS4_EEEEEC1Ev
	.set	_ZNSt17_Rb_tree_iteratorISt4pairIKiNSt7__cxx114listIS0_IiiESaIS4_EEEEEC1Ev,_ZNSt17_Rb_tree_iteratorISt4pairIKiNSt7__cxx114listIS0_IiiESaIS4_EEEEEC2Ev
	.section	.text._ZNSt7__cxx114listISt4pairIiiESaIS2_EED2Ev,"axG",@progbits,_ZNSt7__cxx114listISt4pairIiiESaIS2_EED5Ev,comdat
	.align 2
	.weak	_ZNSt7__cxx114listISt4pairIiiESaIS2_EED2Ev
	.type	_ZNSt7__cxx114listISt4pairIiiESaIS2_EED2Ev, @function
_ZNSt7__cxx114listISt4pairIiiESaIS2_EED2Ev:
	pushl	%ebp
	movl	%esp, %ebp
	subl	$8, %esp
	movl	8(%ebp), %eax
	subl	$12, %esp
	pushl	%eax
	call	_ZNSt7__cxx1110_List_baseISt4pairIiiESaIS2_EED2Ev
	addl	$16, %esp
	nop
	leave
	ret
	.size	_ZNSt7__cxx114listISt4pairIiiESaIS2_EED2Ev, .-_ZNSt7__cxx114listISt4pairIiiESaIS2_EED2Ev
	.weak	_ZNSt7__cxx114listISt4pairIiiESaIS2_EED1Ev
	.set	_ZNSt7__cxx114listISt4pairIiiESaIS2_EED1Ev,_ZNSt7__cxx114listISt4pairIiiESaIS2_EED2Ev
	.section	.text._ZNSt4pairIKiNSt7__cxx114listIS_IiiESaIS3_EEEED2Ev,"axG",@progbits,_ZNSt4pairIKiNSt7__cxx114listIS_IiiESaIS3_EEEED5Ev,comdat
	.align 2
	.weak	_ZNSt4pairIKiNSt7__cxx114listIS_IiiESaIS3_EEEED2Ev
	.type	_ZNSt4pairIKiNSt7__cxx114listIS_IiiESaIS3_EEEED2Ev, @function
_ZNSt4pairIKiNSt7__cxx114listIS_IiiESaIS3_EEEED2Ev:
	pushl	%ebp
	movl	%esp, %ebp
	subl	$8, %esp
	movl	8(%ebp), %eax
	addl	$4, %eax
	subl	$12, %esp
	pushl	%eax
	call	_ZNSt7__cxx114listISt4pairIiiESaIS2_EED1Ev
	addl	$16, %esp
	nop
	leave
	ret
	.size	_ZNSt4pairIKiNSt7__cxx114listIS_IiiESaIS3_EEEED2Ev, .-_ZNSt4pairIKiNSt7__cxx114listIS_IiiESaIS3_EEEED2Ev
	.weak	_ZNSt4pairIKiNSt7__cxx114listIS_IiiESaIS3_EEEED1Ev
	.set	_ZNSt4pairIKiNSt7__cxx114listIS_IiiESaIS3_EEEED1Ev,_ZNSt4pairIKiNSt7__cxx114listIS_IiiESaIS3_EEEED2Ev
	.section	.text._ZNSt3mapIiNSt7__cxx114listISt4pairIiiESaIS3_EEESt4lessIiESaIS2_IKiS5_EEEixERS8_,"axG",@progbits,_ZNSt3mapIiNSt7__cxx114listISt4pairIiiESaIS3_EEESt4lessIiESaIS2_IKiS5_EEEixERS8_,comdat
	.align 2
	.weak	_ZNSt3mapIiNSt7__cxx114listISt4pairIiiESaIS3_EEESt4lessIiESaIS2_IKiS5_EEEixERS8_
	.type	_ZNSt3mapIiNSt7__cxx114listISt4pairIiiESaIS3_EEESt4lessIiESaIS2_IKiS5_EEEixERS8_, @function
_ZNSt3mapIiNSt7__cxx114listISt4pairIiiESaIS3_EEESt4lessIiESaIS2_IKiS5_EEEixERS8_:
	pushl	%ebp
	movl	%esp, %ebp
	pushl	%esi
	pushl	%ebx
	subl	$80, %esp
	movl	8(%ebp), %eax
	movl	%eax, -60(%ebp)
	movl	12(%ebp), %eax
	movl	%eax, -64(%ebp)
	movl	%gs:20, %eax
	movl	%eax, -12(%ebp)
	xorl	%eax, %eax
	leal	-48(%ebp), %eax
	subl	$4, %esp
	pushl	-64(%ebp)
	pushl	-60(%ebp)
	pushl	%eax
	call	_ZNSt3mapIiNSt7__cxx114listISt4pairIiiESaIS3_EEESt4lessIiESaIS2_IKiS5_EEE11lower_boundERS8_
	addl	$12, %esp
	movl	$0, %ebx
	leal	-44(%ebp), %eax
	subl	$8, %esp
	pushl	-60(%ebp)
	pushl	%eax
	call	_ZNSt3mapIiNSt7__cxx114listISt4pairIiiESaIS3_EEESt4lessIiESaIS2_IKiS5_EEE3endEv
	addl	$12, %esp
	movb	$1, -73(%ebp)
	subl	$8, %esp
	leal	-44(%ebp), %eax
	pushl	%eax
	leal	-48(%ebp), %eax
	pushl	%eax
	call	_ZNKSt17_Rb_tree_iteratorISt4pairIKiNSt7__cxx114listIS0_IiiESaIS4_EEEEEeqERKS8_
	addl	$16, %esp
	testb	%al, %al
	jne	.L68
	subl	$12, %esp
	leal	-48(%ebp), %eax
	pushl	%eax
	call	_ZNKSt17_Rb_tree_iteratorISt4pairIKiNSt7__cxx114listIS0_IiiESaIS4_EEEEEdeEv
	addl	$16, %esp
	movl	%eax, %esi
	leal	-65(%ebp), %eax
	subl	$8, %esp
	pushl	-60(%ebp)
	pushl	%eax
	call	_ZNKSt3mapIiNSt7__cxx114listISt4pairIiiESaIS3_EEESt4lessIiESaIS2_IKiS5_EEE8key_compEv
	addl	$12, %esp
	movl	$1, %ebx
	subl	$4, %esp
	pushl	%esi
	pushl	-64(%ebp)
	leal	-49(%ebp), %eax
	pushl	%eax
	call	_ZNKSt4lessIiEclERKiS2_
	addl	$16, %esp
	testb	%al, %al
	je	.L69
.L68:
	movl	$1, %eax
	jmp	.L70
.L69:
	movl	$0, %eax
.L70:
	testb	%bl, %bl
	cmpb	$0, -73(%ebp)
	testb	%al, %al
	je	.L73
	subl	$12, %esp
	leal	-40(%ebp), %eax
	pushl	%eax
	call	_ZNSt7__cxx114listISt4pairIiiESaIS2_EEC1Ev
	addl	$16, %esp
	subl	$4, %esp
	leal	-40(%ebp), %eax
	pushl	%eax
	pushl	-64(%ebp)
	leal	-28(%ebp), %eax
	pushl	%eax
	call	_ZNSt4pairIKiNSt7__cxx114listIS_IiiESaIS3_EEEEC1ERS0_RKS5_
	addl	$16, %esp
	leal	-72(%ebp), %eax
	leal	-28(%ebp), %edx
	pushl	%edx
	pushl	-48(%ebp)
	pushl	-60(%ebp)
	pushl	%eax
	call	_ZNSt3mapIiNSt7__cxx114listISt4pairIiiESaIS3_EEESt4lessIiESaIS2_IKiS5_EEE6insertESt17_Rb_tree_iteratorIS9_ERKS9_
	addl	$12, %esp
	movl	-72(%ebp), %eax
	movl	%eax, -48(%ebp)
	subl	$12, %esp
	leal	-28(%ebp), %eax
	pushl	%eax
	call	_ZNSt4pairIKiNSt7__cxx114listIS_IiiESaIS3_EEEED1Ev
	addl	$16, %esp
	subl	$12, %esp
	leal	-40(%ebp), %eax
	pushl	%eax
	call	_ZNSt7__cxx114listISt4pairIiiESaIS2_EED1Ev
	addl	$16, %esp
.L73:
	subl	$12, %esp
	leal	-48(%ebp), %eax
	pushl	%eax
	call	_ZNKSt17_Rb_tree_iteratorISt4pairIKiNSt7__cxx114listIS0_IiiESaIS4_EEEEEdeEv
	addl	$16, %esp
	addl	$4, %eax
	movl	-12(%ebp), %edx
	xorl	%gs:20, %edx
	je	.L75
	call	__stack_chk_fail
.L75:
	leal	-8(%ebp), %esp
	popl	%ebx
	popl	%esi
	popl	%ebp
	ret
	.size	_ZNSt3mapIiNSt7__cxx114listISt4pairIiiESaIS3_EEESt4lessIiESaIS2_IKiS5_EEEixERS8_, .-_ZNSt3mapIiNSt7__cxx114listISt4pairIiiESaIS3_EEESt4lessIiESaIS2_IKiS5_EEEixERS8_
	.section	.text._ZSt9make_pairIiiESt4pairIT_T0_ES1_S2_,"axG",@progbits,_ZSt9make_pairIiiESt4pairIT_T0_ES1_S2_,comdat
	.weak	_ZSt9make_pairIiiESt4pairIT_T0_ES1_S2_
	.type	_ZSt9make_pairIiiESt4pairIT_T0_ES1_S2_, @function
_ZSt9make_pairIiiESt4pairIT_T0_ES1_S2_:
	pushl	%ebp
	movl	%esp, %ebp
	subl	$8, %esp
	subl	$4, %esp
	leal	16(%ebp), %eax
	pushl	%eax
	leal	12(%ebp), %eax
	pushl	%eax
	pushl	8(%ebp)
	call	_ZNSt4pairIiiEC1ERKiS2_
	addl	$16, %esp
	movl	8(%ebp), %eax
	leave
	ret	$4
	.size	_ZSt9make_pairIiiESt4pairIT_T0_ES1_S2_, .-_ZSt9make_pairIiiESt4pairIT_T0_ES1_S2_
	.section	.text._ZNSt7__cxx114listISt4pairIiiESaIS2_EE9push_backERKS2_,"axG",@progbits,_ZNSt7__cxx114listISt4pairIiiESaIS2_EE9push_backERKS2_,comdat
	.align 2
	.weak	_ZNSt7__cxx114listISt4pairIiiESaIS2_EE9push_backERKS2_
	.type	_ZNSt7__cxx114listISt4pairIiiESaIS2_EE9push_backERKS2_, @function
_ZNSt7__cxx114listISt4pairIiiESaIS2_EE9push_backERKS2_:
	pushl	%ebp
	movl	%esp, %ebp
	subl	$40, %esp
	movl	8(%ebp), %eax
	movl	%eax, -28(%ebp)
	movl	12(%ebp), %eax
	movl	%eax, -32(%ebp)
	movl	%gs:20, %eax
	movl	%eax, -12(%ebp)
	xorl	%eax, %eax
	leal	-16(%ebp), %eax
	subl	$8, %esp
	pushl	-28(%ebp)
	pushl	%eax
	call	_ZNSt7__cxx114listISt4pairIiiESaIS2_EE3endEv
	addl	$12, %esp
	subl	$4, %esp
	pushl	-32(%ebp)
	pushl	-16(%ebp)
	pushl	-28(%ebp)
	call	_ZNSt7__cxx114listISt4pairIiiESaIS2_EE9_M_insertESt14_List_iteratorIS2_ERKS2_
	addl	$16, %esp
	nop
	movl	-12(%ebp), %eax
	xorl	%gs:20, %eax
	je	.L79
	call	__stack_chk_fail
.L79:
	leave
	ret
	.size	_ZNSt7__cxx114listISt4pairIiiESaIS2_EE9push_backERKS2_, .-_ZNSt7__cxx114listISt4pairIiiESaIS2_EE9push_backERKS2_
	.section	.text._ZSt4swapIiEvRT_S1_,"axG",@progbits,_ZSt4swapIiEvRT_S1_,comdat
	.weak	_ZSt4swapIiEvRT_S1_
	.type	_ZSt4swapIiEvRT_S1_, @function
_ZSt4swapIiEvRT_S1_:
	pushl	%ebp
	movl	%esp, %ebp
	subl	$16, %esp
	movl	8(%ebp), %eax
	movl	(%eax), %eax
	movl	%eax, -4(%ebp)
	movl	12(%ebp), %eax
	movl	(%eax), %edx
	movl	8(%ebp), %eax
	movl	%edx, (%eax)
	movl	12(%ebp), %eax
	movl	-4(%ebp), %edx
	movl	%edx, (%eax)
	nop
	leave
	ret
	.size	_ZSt4swapIiEvRT_S1_, .-_ZSt4swapIiEvRT_S1_
	.section	.text._ZNSt8_Rb_treeIiSt4pairIKiNSt7__cxx114listIS0_IiiESaIS4_EEEESt10_Select1stIS7_ESt4lessIiESaIS7_EE13_Rb_tree_implISB_Lb0EED2Ev,"axG",@progbits,_ZNSt8_Rb_treeIiSt4pairIKiNSt7__cxx114listIS0_IiiESaIS4_EEEESt10_Select1stIS7_ESt4lessIiESaIS7_EE13_Rb_tree_implISB_Lb0EED5Ev,comdat
	.align 2
	.weak	_ZNSt8_Rb_treeIiSt4pairIKiNSt7__cxx114listIS0_IiiESaIS4_EEEESt10_Select1stIS7_ESt4lessIiESaIS7_EE13_Rb_tree_implISB_Lb0EED2Ev
	.type	_ZNSt8_Rb_treeIiSt4pairIKiNSt7__cxx114listIS0_IiiESaIS4_EEEESt10_Select1stIS7_ESt4lessIiESaIS7_EE13_Rb_tree_implISB_Lb0EED2Ev, @function
_ZNSt8_Rb_treeIiSt4pairIKiNSt7__cxx114listIS0_IiiESaIS4_EEEESt10_Select1stIS7_ESt4lessIiESaIS7_EE13_Rb_tree_implISB_Lb0EED2Ev:
	pushl	%ebp
	movl	%esp, %ebp
	subl	$8, %esp
	subl	$12, %esp
	pushl	8(%ebp)
	call	_ZNSaISt13_Rb_tree_nodeISt4pairIKiNSt7__cxx114listIS0_IiiESaIS4_EEEEEED2Ev
	addl	$16, %esp
	nop
	leave
	ret
	.size	_ZNSt8_Rb_treeIiSt4pairIKiNSt7__cxx114listIS0_IiiESaIS4_EEEESt10_Select1stIS7_ESt4lessIiESaIS7_EE13_Rb_tree_implISB_Lb0EED2Ev, .-_ZNSt8_Rb_treeIiSt4pairIKiNSt7__cxx114listIS0_IiiESaIS4_EEEESt10_Select1stIS7_ESt4lessIiESaIS7_EE13_Rb_tree_implISB_Lb0EED2Ev
	.weak	_ZNSt8_Rb_treeIiSt4pairIKiNSt7__cxx114listIS0_IiiESaIS4_EEEESt10_Select1stIS7_ESt4lessIiESaIS7_EE13_Rb_tree_implISB_Lb0EED1Ev
	.set	_ZNSt8_Rb_treeIiSt4pairIKiNSt7__cxx114listIS0_IiiESaIS4_EEEESt10_Select1stIS7_ESt4lessIiESaIS7_EE13_Rb_tree_implISB_Lb0EED1Ev,_ZNSt8_Rb_treeIiSt4pairIKiNSt7__cxx114listIS0_IiiESaIS4_EEEESt10_Select1stIS7_ESt4lessIiESaIS7_EE13_Rb_tree_implISB_Lb0EED2Ev
	.section	.text._ZNSt8_Rb_treeIiSt4pairIKiNSt7__cxx114listIS0_IiiESaIS4_EEEESt10_Select1stIS7_ESt4lessIiESaIS7_EEC2Ev,"axG",@progbits,_ZNSt8_Rb_treeIiSt4pairIKiNSt7__cxx114listIS0_IiiESaIS4_EEEESt10_Select1stIS7_ESt4lessIiESaIS7_EEC5Ev,comdat
	.align 2
	.weak	_ZNSt8_Rb_treeIiSt4pairIKiNSt7__cxx114listIS0_IiiESaIS4_EEEESt10_Select1stIS7_ESt4lessIiESaIS7_EEC2Ev
	.type	_ZNSt8_Rb_treeIiSt4pairIKiNSt7__cxx114listIS0_IiiESaIS4_EEEESt10_Select1stIS7_ESt4lessIiESaIS7_EEC2Ev, @function
_ZNSt8_Rb_treeIiSt4pairIKiNSt7__cxx114listIS0_IiiESaIS4_EEEESt10_Select1stIS7_ESt4lessIiESaIS7_EEC2Ev:
	pushl	%ebp
	movl	%esp, %ebp
	subl	$8, %esp
	movl	8(%ebp), %eax
	subl	$12, %esp
	pushl	%eax
	call	_ZNSt8_Rb_treeIiSt4pairIKiNSt7__cxx114listIS0_IiiESaIS4_EEEESt10_Select1stIS7_ESt4lessIiESaIS7_EE13_Rb_tree_implISB_Lb0EEC1Ev
	addl	$16, %esp
	nop
	leave
	ret
	.size	_ZNSt8_Rb_treeIiSt4pairIKiNSt7__cxx114listIS0_IiiESaIS4_EEEESt10_Select1stIS7_ESt4lessIiESaIS7_EEC2Ev, .-_ZNSt8_Rb_treeIiSt4pairIKiNSt7__cxx114listIS0_IiiESaIS4_EEEESt10_Select1stIS7_ESt4lessIiESaIS7_EEC2Ev
	.weak	_ZNSt8_Rb_treeIiSt4pairIKiNSt7__cxx114listIS0_IiiESaIS4_EEEESt10_Select1stIS7_ESt4lessIiESaIS7_EEC1Ev
	.set	_ZNSt8_Rb_treeIiSt4pairIKiNSt7__cxx114listIS0_IiiESaIS4_EEEESt10_Select1stIS7_ESt4lessIiESaIS7_EEC1Ev,_ZNSt8_Rb_treeIiSt4pairIKiNSt7__cxx114listIS0_IiiESaIS4_EEEESt10_Select1stIS7_ESt4lessIiESaIS7_EEC2Ev
	.section	.text._ZNSt8_Rb_treeIiSt4pairIKiNSt7__cxx114listIS0_IiiESaIS4_EEEESt10_Select1stIS7_ESt4lessIiESaIS7_EED2Ev,"axG",@progbits,_ZNSt8_Rb_treeIiSt4pairIKiNSt7__cxx114listIS0_IiiESaIS4_EEEESt10_Select1stIS7_ESt4lessIiESaIS7_EED5Ev,comdat
	.align 2
	.weak	_ZNSt8_Rb_treeIiSt4pairIKiNSt7__cxx114listIS0_IiiESaIS4_EEEESt10_Select1stIS7_ESt4lessIiESaIS7_EED2Ev
	.type	_ZNSt8_Rb_treeIiSt4pairIKiNSt7__cxx114listIS0_IiiESaIS4_EEEESt10_Select1stIS7_ESt4lessIiESaIS7_EED2Ev, @function
_ZNSt8_Rb_treeIiSt4pairIKiNSt7__cxx114listIS0_IiiESaIS4_EEEESt10_Select1stIS7_ESt4lessIiESaIS7_EED2Ev:
	pushl	%ebp
	movl	%esp, %ebp
	subl	$8, %esp
	subl	$12, %esp
	pushl	8(%ebp)
	call	_ZNSt8_Rb_treeIiSt4pairIKiNSt7__cxx114listIS0_IiiESaIS4_EEEESt10_Select1stIS7_ESt4lessIiESaIS7_EE8_M_beginEv
	addl	$16, %esp
	subl	$8, %esp
	pushl	%eax
	pushl	8(%ebp)
	call	_ZNSt8_Rb_treeIiSt4pairIKiNSt7__cxx114listIS0_IiiESaIS4_EEEESt10_Select1stIS7_ESt4lessIiESaIS7_EE8_M_eraseEPSt13_Rb_tree_nodeIS7_E
	addl	$16, %esp
	movl	8(%ebp), %eax
	subl	$12, %esp
	pushl	%eax
	call	_ZNSt8_Rb_treeIiSt4pairIKiNSt7__cxx114listIS0_IiiESaIS4_EEEESt10_Select1stIS7_ESt4lessIiESaIS7_EE13_Rb_tree_implISB_Lb0EED1Ev
	addl	$16, %esp
	nop
	leave
	ret
	.size	_ZNSt8_Rb_treeIiSt4pairIKiNSt7__cxx114listIS0_IiiESaIS4_EEEESt10_Select1stIS7_ESt4lessIiESaIS7_EED2Ev, .-_ZNSt8_Rb_treeIiSt4pairIKiNSt7__cxx114listIS0_IiiESaIS4_EEEESt10_Select1stIS7_ESt4lessIiESaIS7_EED2Ev
	.weak	_ZNSt8_Rb_treeIiSt4pairIKiNSt7__cxx114listIS0_IiiESaIS4_EEEESt10_Select1stIS7_ESt4lessIiESaIS7_EED1Ev
	.set	_ZNSt8_Rb_treeIiSt4pairIKiNSt7__cxx114listIS0_IiiESaIS4_EEEESt10_Select1stIS7_ESt4lessIiESaIS7_EED1Ev,_ZNSt8_Rb_treeIiSt4pairIKiNSt7__cxx114listIS0_IiiESaIS4_EEEESt10_Select1stIS7_ESt4lessIiESaIS7_EED2Ev
	.section	.text._ZNSt3mapIiNSt7__cxx114listISt4pairIiiESaIS3_EEESt4lessIiESaIS2_IKiS5_EEE11lower_boundERS8_,"axG",@progbits,_ZNSt3mapIiNSt7__cxx114listISt4pairIiiESaIS3_EEESt4lessIiESaIS2_IKiS5_EEE11lower_boundERS8_,comdat
	.align 2
	.weak	_ZNSt3mapIiNSt7__cxx114listISt4pairIiiESaIS3_EEESt4lessIiESaIS2_IKiS5_EEE11lower_boundERS8_
	.type	_ZNSt3mapIiNSt7__cxx114listISt4pairIiiESaIS3_EEESt4lessIiESaIS2_IKiS5_EEE11lower_boundERS8_, @function
_ZNSt3mapIiNSt7__cxx114listISt4pairIiiESaIS3_EEESt4lessIiESaIS2_IKiS5_EEE11lower_boundERS8_:
	pushl	%ebp
	movl	%esp, %ebp
	subl	$40, %esp
	movl	8(%ebp), %eax
	movl	%eax, -28(%ebp)
	movl	12(%ebp), %eax
	movl	%eax, -32(%ebp)
	movl	16(%ebp), %eax
	movl	%eax, -36(%ebp)
	movl	%gs:20, %eax
	movl	%eax, -12(%ebp)
	xorl	%eax, %eax
	movl	-32(%ebp), %edx
	movl	-28(%ebp), %eax
	subl	$4, %esp
	pushl	-36(%ebp)
	pushl	%edx
	pushl	%eax
	call	_ZNSt8_Rb_treeIiSt4pairIKiNSt7__cxx114listIS0_IiiESaIS4_EEEESt10_Select1stIS7_ESt4lessIiESaIS7_EE11lower_boundERS1_
	addl	$12, %esp
	movl	-28(%ebp), %eax
	movl	-12(%ebp), %ecx
	xorl	%gs:20, %ecx
	je	.L86
	call	__stack_chk_fail
.L86:
	leave
	ret	$4
	.size	_ZNSt3mapIiNSt7__cxx114listISt4pairIiiESaIS3_EEESt4lessIiESaIS2_IKiS5_EEE11lower_boundERS8_, .-_ZNSt3mapIiNSt7__cxx114listISt4pairIiiESaIS3_EEESt4lessIiESaIS2_IKiS5_EEE11lower_boundERS8_
	.section	.text._ZNSt3mapIiNSt7__cxx114listISt4pairIiiESaIS3_EEESt4lessIiESaIS2_IKiS5_EEE3endEv,"axG",@progbits,_ZNSt3mapIiNSt7__cxx114listISt4pairIiiESaIS3_EEESt4lessIiESaIS2_IKiS5_EEE3endEv,comdat
	.align 2
	.weak	_ZNSt3mapIiNSt7__cxx114listISt4pairIiiESaIS3_EEESt4lessIiESaIS2_IKiS5_EEE3endEv
	.type	_ZNSt3mapIiNSt7__cxx114listISt4pairIiiESaIS3_EEESt4lessIiESaIS2_IKiS5_EEE3endEv, @function
_ZNSt3mapIiNSt7__cxx114listISt4pairIiiESaIS3_EEESt4lessIiESaIS2_IKiS5_EEE3endEv:
	pushl	%ebp
	movl	%esp, %ebp
	subl	$40, %esp
	movl	8(%ebp), %eax
	movl	%eax, -28(%ebp)
	movl	12(%ebp), %eax
	movl	%eax, -32(%ebp)
	movl	%gs:20, %eax
	movl	%eax, -12(%ebp)
	xorl	%eax, %eax
	movl	-32(%ebp), %edx
	movl	-28(%ebp), %eax
	subl	$8, %esp
	pushl	%edx
	pushl	%eax
	call	_ZNSt8_Rb_treeIiSt4pairIKiNSt7__cxx114listIS0_IiiESaIS4_EEEESt10_Select1stIS7_ESt4lessIiESaIS7_EE3endEv
	addl	$12, %esp
	movl	-28(%ebp), %eax
	movl	-12(%ebp), %ecx
	xorl	%gs:20, %ecx
	je	.L89
	call	__stack_chk_fail
.L89:
	leave
	ret	$4
	.size	_ZNSt3mapIiNSt7__cxx114listISt4pairIiiESaIS3_EEESt4lessIiESaIS2_IKiS5_EEE3endEv, .-_ZNSt3mapIiNSt7__cxx114listISt4pairIiiESaIS3_EEESt4lessIiESaIS2_IKiS5_EEE3endEv
	.section	.text._ZNKSt17_Rb_tree_iteratorISt4pairIKiNSt7__cxx114listIS0_IiiESaIS4_EEEEEeqERKS8_,"axG",@progbits,_ZNKSt17_Rb_tree_iteratorISt4pairIKiNSt7__cxx114listIS0_IiiESaIS4_EEEEEeqERKS8_,comdat
	.align 2
	.weak	_ZNKSt17_Rb_tree_iteratorISt4pairIKiNSt7__cxx114listIS0_IiiESaIS4_EEEEEeqERKS8_
	.type	_ZNKSt17_Rb_tree_iteratorISt4pairIKiNSt7__cxx114listIS0_IiiESaIS4_EEEEEeqERKS8_, @function
_ZNKSt17_Rb_tree_iteratorISt4pairIKiNSt7__cxx114listIS0_IiiESaIS4_EEEEEeqERKS8_:
	pushl	%ebp
	movl	%esp, %ebp
	movl	8(%ebp), %eax
	movl	(%eax), %edx
	movl	12(%ebp), %eax
	movl	(%eax), %eax
	cmpl	%eax, %edx
	sete	%al
	popl	%ebp
	ret
	.size	_ZNKSt17_Rb_tree_iteratorISt4pairIKiNSt7__cxx114listIS0_IiiESaIS4_EEEEEeqERKS8_, .-_ZNKSt17_Rb_tree_iteratorISt4pairIKiNSt7__cxx114listIS0_IiiESaIS4_EEEEEeqERKS8_
	.section	.text._ZNKSt3mapIiNSt7__cxx114listISt4pairIiiESaIS3_EEESt4lessIiESaIS2_IKiS5_EEE8key_compEv,"axG",@progbits,_ZNKSt3mapIiNSt7__cxx114listISt4pairIiiESaIS3_EEESt4lessIiESaIS2_IKiS5_EEE8key_compEv,comdat
	.align 2
	.weak	_ZNKSt3mapIiNSt7__cxx114listISt4pairIiiESaIS3_EEESt4lessIiESaIS2_IKiS5_EEE8key_compEv
	.type	_ZNKSt3mapIiNSt7__cxx114listISt4pairIiiESaIS3_EEESt4lessIiESaIS2_IKiS5_EEE8key_compEv, @function
_ZNKSt3mapIiNSt7__cxx114listISt4pairIiiESaIS3_EEESt4lessIiESaIS2_IKiS5_EEE8key_compEv:
	pushl	%ebp
	movl	%esp, %ebp
	subl	$40, %esp
	movl	8(%ebp), %eax
	movl	%eax, -28(%ebp)
	movl	12(%ebp), %eax
	movl	%eax, -32(%ebp)
	movl	%gs:20, %eax
	movl	%eax, -12(%ebp)
	xorl	%eax, %eax
	movl	-32(%ebp), %edx
	movl	-28(%ebp), %eax
	subl	$8, %esp
	pushl	%edx
	pushl	%eax
	call	_ZNKSt8_Rb_treeIiSt4pairIKiNSt7__cxx114listIS0_IiiESaIS4_EEEESt10_Select1stIS7_ESt4lessIiESaIS7_EE8key_compEv
	addl	$12, %esp
	movl	-28(%ebp), %eax
	movl	-12(%ebp), %ecx
	xorl	%gs:20, %ecx
	je	.L94
	call	__stack_chk_fail
.L94:
	leave
	ret	$4
	.size	_ZNKSt3mapIiNSt7__cxx114listISt4pairIiiESaIS3_EEESt4lessIiESaIS2_IKiS5_EEE8key_compEv, .-_ZNKSt3mapIiNSt7__cxx114listISt4pairIiiESaIS3_EEESt4lessIiESaIS2_IKiS5_EEE8key_compEv
	.section	.text._ZNKSt17_Rb_tree_iteratorISt4pairIKiNSt7__cxx114listIS0_IiiESaIS4_EEEEEdeEv,"axG",@progbits,_ZNKSt17_Rb_tree_iteratorISt4pairIKiNSt7__cxx114listIS0_IiiESaIS4_EEEEEdeEv,comdat
	.align 2
	.weak	_ZNKSt17_Rb_tree_iteratorISt4pairIKiNSt7__cxx114listIS0_IiiESaIS4_EEEEEdeEv
	.type	_ZNKSt17_Rb_tree_iteratorISt4pairIKiNSt7__cxx114listIS0_IiiESaIS4_EEEEEdeEv, @function
_ZNKSt17_Rb_tree_iteratorISt4pairIKiNSt7__cxx114listIS0_IiiESaIS4_EEEEEdeEv:
	pushl	%ebp
	movl	%esp, %ebp
	subl	$8, %esp
	movl	8(%ebp), %eax
	movl	(%eax), %eax
	subl	$12, %esp
	pushl	%eax
	call	_ZNSt13_Rb_tree_nodeISt4pairIKiNSt7__cxx114listIS0_IiiESaIS4_EEEEE9_M_valptrEv
	addl	$16, %esp
	leave
	ret
	.size	_ZNKSt17_Rb_tree_iteratorISt4pairIKiNSt7__cxx114listIS0_IiiESaIS4_EEEEEdeEv, .-_ZNKSt17_Rb_tree_iteratorISt4pairIKiNSt7__cxx114listIS0_IiiESaIS4_EEEEEdeEv
	.section	.text._ZNKSt4lessIiEclERKiS2_,"axG",@progbits,_ZNKSt4lessIiEclERKiS2_,comdat
	.align 2
	.weak	_ZNKSt4lessIiEclERKiS2_
	.type	_ZNKSt4lessIiEclERKiS2_, @function
_ZNKSt4lessIiEclERKiS2_:
	pushl	%ebp
	movl	%esp, %ebp
	movl	12(%ebp), %eax
	movl	(%eax), %edx
	movl	16(%ebp), %eax
	movl	(%eax), %eax
	cmpl	%eax, %edx
	setl	%al
	popl	%ebp
	ret
	.size	_ZNKSt4lessIiEclERKiS2_, .-_ZNKSt4lessIiEclERKiS2_
	.section	.text._ZNSt7__cxx114listISt4pairIiiESaIS2_EEC2Ev,"axG",@progbits,_ZNSt7__cxx114listISt4pairIiiESaIS2_EEC5Ev,comdat
	.align 2
	.weak	_ZNSt7__cxx114listISt4pairIiiESaIS2_EEC2Ev
	.type	_ZNSt7__cxx114listISt4pairIiiESaIS2_EEC2Ev, @function
_ZNSt7__cxx114listISt4pairIiiESaIS2_EEC2Ev:
	pushl	%ebp
	movl	%esp, %ebp
	subl	$8, %esp
	movl	8(%ebp), %eax
	subl	$12, %esp
	pushl	%eax
	call	_ZNSt7__cxx1110_List_baseISt4pairIiiESaIS2_EEC2Ev
	addl	$16, %esp
	nop
	leave
	ret
	.size	_ZNSt7__cxx114listISt4pairIiiESaIS2_EEC2Ev, .-_ZNSt7__cxx114listISt4pairIiiESaIS2_EEC2Ev
	.weak	_ZNSt7__cxx114listISt4pairIiiESaIS2_EEC1Ev
	.set	_ZNSt7__cxx114listISt4pairIiiESaIS2_EEC1Ev,_ZNSt7__cxx114listISt4pairIiiESaIS2_EEC2Ev
	.section	.text._ZNSt7__cxx1110_List_baseISt4pairIiiESaIS2_EE10_List_implD2Ev,"axG",@progbits,_ZNSt7__cxx1110_List_baseISt4pairIiiESaIS2_EE10_List_implD5Ev,comdat
	.align 2
	.weak	_ZNSt7__cxx1110_List_baseISt4pairIiiESaIS2_EE10_List_implD2Ev
	.type	_ZNSt7__cxx1110_List_baseISt4pairIiiESaIS2_EE10_List_implD2Ev, @function
_ZNSt7__cxx1110_List_baseISt4pairIiiESaIS2_EE10_List_implD2Ev:
	pushl	%ebp
	movl	%esp, %ebp
	subl	$8, %esp
	subl	$12, %esp
	pushl	8(%ebp)
	call	_ZNSaISt10_List_nodeISt4pairIiiEEED2Ev
	addl	$16, %esp
	nop
	leave
	ret
	.size	_ZNSt7__cxx1110_List_baseISt4pairIiiESaIS2_EE10_List_implD2Ev, .-_ZNSt7__cxx1110_List_baseISt4pairIiiESaIS2_EE10_List_implD2Ev
	.weak	_ZNSt7__cxx1110_List_baseISt4pairIiiESaIS2_EE10_List_implD1Ev
	.set	_ZNSt7__cxx1110_List_baseISt4pairIiiESaIS2_EE10_List_implD1Ev,_ZNSt7__cxx1110_List_baseISt4pairIiiESaIS2_EE10_List_implD2Ev
	.section	.text._ZNSt7__cxx1110_List_baseISt4pairIiiESaIS2_EED2Ev,"axG",@progbits,_ZNSt7__cxx1110_List_baseISt4pairIiiESaIS2_EED5Ev,comdat
	.align 2
	.weak	_ZNSt7__cxx1110_List_baseISt4pairIiiESaIS2_EED2Ev
	.type	_ZNSt7__cxx1110_List_baseISt4pairIiiESaIS2_EED2Ev, @function
_ZNSt7__cxx1110_List_baseISt4pairIiiESaIS2_EED2Ev:
	pushl	%ebp
	movl	%esp, %ebp
	subl	$8, %esp
	subl	$12, %esp
	pushl	8(%ebp)
	call	_ZNSt7__cxx1110_List_baseISt4pairIiiESaIS2_EE8_M_clearEv
	addl	$16, %esp
	movl	8(%ebp), %eax
	subl	$12, %esp
	pushl	%eax
	call	_ZNSt7__cxx1110_List_baseISt4pairIiiESaIS2_EE10_List_implD1Ev
	addl	$16, %esp
	nop
	leave
	ret
	.size	_ZNSt7__cxx1110_List_baseISt4pairIiiESaIS2_EED2Ev, .-_ZNSt7__cxx1110_List_baseISt4pairIiiESaIS2_EED2Ev
	.weak	_ZNSt7__cxx1110_List_baseISt4pairIiiESaIS2_EED1Ev
	.set	_ZNSt7__cxx1110_List_baseISt4pairIiiESaIS2_EED1Ev,_ZNSt7__cxx1110_List_baseISt4pairIiiESaIS2_EED2Ev
	.section	.text._ZNSt4pairIKiNSt7__cxx114listIS_IiiESaIS3_EEEEC2ERS0_RKS5_,"axG",@progbits,_ZNSt4pairIKiNSt7__cxx114listIS_IiiESaIS3_EEEEC5ERS0_RKS5_,comdat
	.align 2
	.weak	_ZNSt4pairIKiNSt7__cxx114listIS_IiiESaIS3_EEEEC2ERS0_RKS5_
	.type	_ZNSt4pairIKiNSt7__cxx114listIS_IiiESaIS3_EEEEC2ERS0_RKS5_, @function
_ZNSt4pairIKiNSt7__cxx114listIS_IiiESaIS3_EEEEC2ERS0_RKS5_:
	pushl	%ebp
	movl	%esp, %ebp
	subl	$8, %esp
	movl	12(%ebp), %eax
	movl	(%eax), %edx
	movl	8(%ebp), %eax
	movl	%edx, (%eax)
	movl	8(%ebp), %eax
	addl	$4, %eax
	subl	$8, %esp
	pushl	16(%ebp)
	pushl	%eax
	call	_ZNSt7__cxx114listISt4pairIiiESaIS2_EEC1ERKS4_
	addl	$16, %esp
	nop
	leave
	ret
	.size	_ZNSt4pairIKiNSt7__cxx114listIS_IiiESaIS3_EEEEC2ERS0_RKS5_, .-_ZNSt4pairIKiNSt7__cxx114listIS_IiiESaIS3_EEEEC2ERS0_RKS5_
	.weak	_ZNSt4pairIKiNSt7__cxx114listIS_IiiESaIS3_EEEEC1ERS0_RKS5_
	.set	_ZNSt4pairIKiNSt7__cxx114listIS_IiiESaIS3_EEEEC1ERS0_RKS5_,_ZNSt4pairIKiNSt7__cxx114listIS_IiiESaIS3_EEEEC2ERS0_RKS5_
	.section	.text._ZNSt3mapIiNSt7__cxx114listISt4pairIiiESaIS3_EEESt4lessIiESaIS2_IKiS5_EEE6insertESt17_Rb_tree_iteratorIS9_ERKS9_,"axG",@progbits,_ZNSt3mapIiNSt7__cxx114listISt4pairIiiESaIS3_EEESt4lessIiESaIS2_IKiS5_EEE6insertESt17_Rb_tree_iteratorIS9_ERKS9_,comdat
	.align 2
	.weak	_ZNSt3mapIiNSt7__cxx114listISt4pairIiiESaIS3_EEESt4lessIiESaIS2_IKiS5_EEE6insertESt17_Rb_tree_iteratorIS9_ERKS9_
	.type	_ZNSt3mapIiNSt7__cxx114listISt4pairIiiESaIS3_EEESt4lessIiESaIS2_IKiS5_EEE6insertESt17_Rb_tree_iteratorIS9_ERKS9_, @function
_ZNSt3mapIiNSt7__cxx114listISt4pairIiiESaIS3_EEESt4lessIiESaIS2_IKiS5_EEE6insertESt17_Rb_tree_iteratorIS9_ERKS9_:
	pushl	%ebp
	movl	%esp, %ebp
	subl	$40, %esp
	movl	8(%ebp), %eax
	movl	%eax, -28(%ebp)
	movl	12(%ebp), %eax
	movl	%eax, -32(%ebp)
	movl	20(%ebp), %eax
	movl	%eax, -36(%ebp)
	movl	%gs:20, %eax
	movl	%eax, -12(%ebp)
	xorl	%eax, %eax
	subl	$8, %esp
	leal	16(%ebp), %eax
	pushl	%eax
	leal	-16(%ebp), %eax
	pushl	%eax
	call	_ZNSt23_Rb_tree_const_iteratorISt4pairIKiNSt7__cxx114listIS0_IiiESaIS4_EEEEEC1ERKSt17_Rb_tree_iteratorIS7_E
	addl	$16, %esp
	movl	-32(%ebp), %edx
	movl	-28(%ebp), %eax
	pushl	-36(%ebp)
	pushl	-16(%ebp)
	pushl	%edx
	pushl	%eax
	call	_ZNSt8_Rb_treeIiSt4pairIKiNSt7__cxx114listIS0_IiiESaIS4_EEEESt10_Select1stIS7_ESt4lessIiESaIS7_EE17_M_insert_unique_ESt23_Rb_tree_const_iteratorIS7_ERKS7_
	addl	$12, %esp
	movl	-28(%ebp), %eax
	movl	-12(%ebp), %ecx
	xorl	%gs:20, %ecx
	je	.L105
	call	__stack_chk_fail
.L105:
	leave
	ret	$4
	.size	_ZNSt3mapIiNSt7__cxx114listISt4pairIiiESaIS3_EEESt4lessIiESaIS2_IKiS5_EEE6insertESt17_Rb_tree_iteratorIS9_ERKS9_, .-_ZNSt3mapIiNSt7__cxx114listISt4pairIiiESaIS3_EEESt4lessIiESaIS2_IKiS5_EEE6insertESt17_Rb_tree_iteratorIS9_ERKS9_
	.section	.text._ZNSt4pairIiiEC2ERKiS2_,"axG",@progbits,_ZNSt4pairIiiEC5ERKiS2_,comdat
	.align 2
	.weak	_ZNSt4pairIiiEC2ERKiS2_
	.type	_ZNSt4pairIiiEC2ERKiS2_, @function
_ZNSt4pairIiiEC2ERKiS2_:
	pushl	%ebp
	movl	%esp, %ebp
	movl	12(%ebp), %eax
	movl	(%eax), %edx
	movl	8(%ebp), %eax
	movl	%edx, (%eax)
	movl	16(%ebp), %eax
	movl	(%eax), %edx
	movl	8(%ebp), %eax
	movl	%edx, 4(%eax)
	nop
	popl	%ebp
	ret
	.size	_ZNSt4pairIiiEC2ERKiS2_, .-_ZNSt4pairIiiEC2ERKiS2_
	.weak	_ZNSt4pairIiiEC1ERKiS2_
	.set	_ZNSt4pairIiiEC1ERKiS2_,_ZNSt4pairIiiEC2ERKiS2_
	.section	.text._ZNSt7__cxx114listISt4pairIiiESaIS2_EE3endEv,"axG",@progbits,_ZNSt7__cxx114listISt4pairIiiESaIS2_EE3endEv,comdat
	.align 2
	.weak	_ZNSt7__cxx114listISt4pairIiiESaIS2_EE3endEv
	.type	_ZNSt7__cxx114listISt4pairIiiESaIS2_EE3endEv, @function
_ZNSt7__cxx114listISt4pairIiiESaIS2_EE3endEv:
	pushl	%ebp
	movl	%esp, %ebp
	subl	$8, %esp
	movl	12(%ebp), %eax
	subl	$8, %esp
	pushl	%eax
	pushl	8(%ebp)
	call	_ZNSt14_List_iteratorISt4pairIiiEEC1EPNSt8__detail15_List_node_baseE
	addl	$16, %esp
	movl	8(%ebp), %eax
	leave
	ret	$4
	.size	_ZNSt7__cxx114listISt4pairIiiESaIS2_EE3endEv, .-_ZNSt7__cxx114listISt4pairIiiESaIS2_EE3endEv
	.section	.text._ZNSt7__cxx114listISt4pairIiiESaIS2_EE9_M_insertESt14_List_iteratorIS2_ERKS2_,"axG",@progbits,_ZNSt7__cxx114listISt4pairIiiESaIS2_EE9_M_insertESt14_List_iteratorIS2_ERKS2_,comdat
	.align 2
	.weak	_ZNSt7__cxx114listISt4pairIiiESaIS2_EE9_M_insertESt14_List_iteratorIS2_ERKS2_
	.type	_ZNSt7__cxx114listISt4pairIiiESaIS2_EE9_M_insertESt14_List_iteratorIS2_ERKS2_, @function
_ZNSt7__cxx114listISt4pairIiiESaIS2_EE9_M_insertESt14_List_iteratorIS2_ERKS2_:
	pushl	%ebp
	movl	%esp, %ebp
	subl	$24, %esp
	subl	$8, %esp
	pushl	16(%ebp)
	pushl	8(%ebp)
	call	_ZNSt7__cxx114listISt4pairIiiESaIS2_EE14_M_create_nodeERKS2_
	addl	$16, %esp
	movl	%eax, -12(%ebp)
	movl	12(%ebp), %edx
	movl	-12(%ebp), %eax
	subl	$8, %esp
	pushl	%edx
	pushl	%eax
	call	_ZNSt8__detail15_List_node_base7_M_hookEPS0_
	addl	$16, %esp
	movl	8(%ebp), %eax
	subl	$8, %esp
	pushl	$1
	pushl	%eax
	call	_ZNSt7__cxx1110_List_baseISt4pairIiiESaIS2_EE11_M_inc_sizeEj
	addl	$16, %esp
	nop
	leave
	ret
	.size	_ZNSt7__cxx114listISt4pairIiiESaIS2_EE9_M_insertESt14_List_iteratorIS2_ERKS2_, .-_ZNSt7__cxx114listISt4pairIiiESaIS2_EE9_M_insertESt14_List_iteratorIS2_ERKS2_
	.section	.text._ZNSt8_Rb_treeIiSt4pairIKiNSt7__cxx114listIS0_IiiESaIS4_EEEESt10_Select1stIS7_ESt4lessIiESaIS7_EE13_Rb_tree_implISB_Lb0EEC2Ev,"axG",@progbits,_ZNSt8_Rb_treeIiSt4pairIKiNSt7__cxx114listIS0_IiiESaIS4_EEEESt10_Select1stIS7_ESt4lessIiESaIS7_EE13_Rb_tree_implISB_Lb0EEC5Ev,comdat
	.align 2
	.weak	_ZNSt8_Rb_treeIiSt4pairIKiNSt7__cxx114listIS0_IiiESaIS4_EEEESt10_Select1stIS7_ESt4lessIiESaIS7_EE13_Rb_tree_implISB_Lb0EEC2Ev
	.type	_ZNSt8_Rb_treeIiSt4pairIKiNSt7__cxx114listIS0_IiiESaIS4_EEEESt10_Select1stIS7_ESt4lessIiESaIS7_EE13_Rb_tree_implISB_Lb0EEC2Ev, @function
_ZNSt8_Rb_treeIiSt4pairIKiNSt7__cxx114listIS0_IiiESaIS4_EEEESt10_Select1stIS7_ESt4lessIiESaIS7_EE13_Rb_tree_implISB_Lb0EEC2Ev:
	pushl	%ebp
	movl	%esp, %ebp
	subl	$8, %esp
	subl	$12, %esp
	pushl	8(%ebp)
	call	_ZNSaISt13_Rb_tree_nodeISt4pairIKiNSt7__cxx114listIS0_IiiESaIS4_EEEEEEC2Ev
	addl	$16, %esp
	movl	8(%ebp), %eax
	movl	$0, 4(%eax)
	movl	8(%ebp), %eax
	movl	$0, 8(%eax)
	movl	8(%ebp), %eax
	movl	$0, 12(%eax)
	movl	8(%ebp), %eax
	movl	$0, 16(%eax)
	movl	8(%ebp), %eax
	movl	$0, 20(%eax)
	subl	$12, %esp
	pushl	8(%ebp)
	call	_ZNSt8_Rb_treeIiSt4pairIKiNSt7__cxx114listIS0_IiiESaIS4_EEEESt10_Select1stIS7_ESt4lessIiESaIS7_EE13_Rb_tree_implISB_Lb0EE13_M_initializeEv
	addl	$16, %esp
	nop
	leave
	ret
	.size	_ZNSt8_Rb_treeIiSt4pairIKiNSt7__cxx114listIS0_IiiESaIS4_EEEESt10_Select1stIS7_ESt4lessIiESaIS7_EE13_Rb_tree_implISB_Lb0EEC2Ev, .-_ZNSt8_Rb_treeIiSt4pairIKiNSt7__cxx114listIS0_IiiESaIS4_EEEESt10_Select1stIS7_ESt4lessIiESaIS7_EE13_Rb_tree_implISB_Lb0EEC2Ev
	.weak	_ZNSt8_Rb_treeIiSt4pairIKiNSt7__cxx114listIS0_IiiESaIS4_EEEESt10_Select1stIS7_ESt4lessIiESaIS7_EE13_Rb_tree_implISB_Lb0EEC1Ev
	.set	_ZNSt8_Rb_treeIiSt4pairIKiNSt7__cxx114listIS0_IiiESaIS4_EEEESt10_Select1stIS7_ESt4lessIiESaIS7_EE13_Rb_tree_implISB_Lb0EEC1Ev,_ZNSt8_Rb_treeIiSt4pairIKiNSt7__cxx114listIS0_IiiESaIS4_EEEESt10_Select1stIS7_ESt4lessIiESaIS7_EE13_Rb_tree_implISB_Lb0EEC2Ev
	.section	.text._ZNSaISt13_Rb_tree_nodeISt4pairIKiNSt7__cxx114listIS0_IiiESaIS4_EEEEEED2Ev,"axG",@progbits,_ZNSaISt13_Rb_tree_nodeISt4pairIKiNSt7__cxx114listIS0_IiiESaIS4_EEEEEED5Ev,comdat
	.align 2
	.weak	_ZNSaISt13_Rb_tree_nodeISt4pairIKiNSt7__cxx114listIS0_IiiESaIS4_EEEEEED2Ev
	.type	_ZNSaISt13_Rb_tree_nodeISt4pairIKiNSt7__cxx114listIS0_IiiESaIS4_EEEEEED2Ev, @function
_ZNSaISt13_Rb_tree_nodeISt4pairIKiNSt7__cxx114listIS0_IiiESaIS4_EEEEEED2Ev:
	pushl	%ebp
	movl	%esp, %ebp
	subl	$8, %esp
	subl	$12, %esp
	pushl	8(%ebp)
	call	_ZN9__gnu_cxx13new_allocatorISt13_Rb_tree_nodeISt4pairIKiNSt7__cxx114listIS2_IiiESaIS6_EEEEEED2Ev
	addl	$16, %esp
	nop
	leave
	ret
	.size	_ZNSaISt13_Rb_tree_nodeISt4pairIKiNSt7__cxx114listIS0_IiiESaIS4_EEEEEED2Ev, .-_ZNSaISt13_Rb_tree_nodeISt4pairIKiNSt7__cxx114listIS0_IiiESaIS4_EEEEEED2Ev
	.weak	_ZNSaISt13_Rb_tree_nodeISt4pairIKiNSt7__cxx114listIS0_IiiESaIS4_EEEEEED1Ev
	.set	_ZNSaISt13_Rb_tree_nodeISt4pairIKiNSt7__cxx114listIS0_IiiESaIS4_EEEEEED1Ev,_ZNSaISt13_Rb_tree_nodeISt4pairIKiNSt7__cxx114listIS0_IiiESaIS4_EEEEEED2Ev
	.section	.text._ZNSt8_Rb_treeIiSt4pairIKiNSt7__cxx114listIS0_IiiESaIS4_EEEESt10_Select1stIS7_ESt4lessIiESaIS7_EE8_M_eraseEPSt13_Rb_tree_nodeIS7_E,"axG",@progbits,_ZNSt8_Rb_treeIiSt4pairIKiNSt7__cxx114listIS0_IiiESaIS4_EEEESt10_Select1stIS7_ESt4lessIiESaIS7_EE8_M_eraseEPSt13_Rb_tree_nodeIS7_E,comdat
	.align 2
	.weak	_ZNSt8_Rb_treeIiSt4pairIKiNSt7__cxx114listIS0_IiiESaIS4_EEEESt10_Select1stIS7_ESt4lessIiESaIS7_EE8_M_eraseEPSt13_Rb_tree_nodeIS7_E
	.type	_ZNSt8_Rb_treeIiSt4pairIKiNSt7__cxx114listIS0_IiiESaIS4_EEEESt10_Select1stIS7_ESt4lessIiESaIS7_EE8_M_eraseEPSt13_Rb_tree_nodeIS7_E, @function
_ZNSt8_Rb_treeIiSt4pairIKiNSt7__cxx114listIS0_IiiESaIS4_EEEESt10_Select1stIS7_ESt4lessIiESaIS7_EE8_M_eraseEPSt13_Rb_tree_nodeIS7_E:
	pushl	%ebp
	movl	%esp, %ebp
	subl	$24, %esp
.L114:
	cmpl	$0, 12(%ebp)
	je	.L115
	subl	$12, %esp
	pushl	12(%ebp)
	call	_ZNSt8_Rb_treeIiSt4pairIKiNSt7__cxx114listIS0_IiiESaIS4_EEEESt10_Select1stIS7_ESt4lessIiESaIS7_EE8_S_rightEPSt18_Rb_tree_node_base
	addl	$16, %esp
	subl	$8, %esp
	pushl	%eax
	pushl	8(%ebp)
	call	_ZNSt8_Rb_treeIiSt4pairIKiNSt7__cxx114listIS0_IiiESaIS4_EEEESt10_Select1stIS7_ESt4lessIiESaIS7_EE8_M_eraseEPSt13_Rb_tree_nodeIS7_E
	addl	$16, %esp
	subl	$12, %esp
	pushl	12(%ebp)
	call	_ZNSt8_Rb_treeIiSt4pairIKiNSt7__cxx114listIS0_IiiESaIS4_EEEESt10_Select1stIS7_ESt4lessIiESaIS7_EE7_S_leftEPSt18_Rb_tree_node_base
	addl	$16, %esp
	movl	%eax, -12(%ebp)
	subl	$8, %esp
	pushl	12(%ebp)
	pushl	8(%ebp)
	call	_ZNSt8_Rb_treeIiSt4pairIKiNSt7__cxx114listIS0_IiiESaIS4_EEEESt10_Select1stIS7_ESt4lessIiESaIS7_EE12_M_drop_nodeEPSt13_Rb_tree_nodeIS7_E
	addl	$16, %esp
	movl	-12(%ebp), %eax
	movl	%eax, 12(%ebp)
	jmp	.L114
.L115:
	nop
	leave
	ret
	.size	_ZNSt8_Rb_treeIiSt4pairIKiNSt7__cxx114listIS0_IiiESaIS4_EEEESt10_Select1stIS7_ESt4lessIiESaIS7_EE8_M_eraseEPSt13_Rb_tree_nodeIS7_E, .-_ZNSt8_Rb_treeIiSt4pairIKiNSt7__cxx114listIS0_IiiESaIS4_EEEESt10_Select1stIS7_ESt4lessIiESaIS7_EE8_M_eraseEPSt13_Rb_tree_nodeIS7_E
	.section	.text._ZNSt8_Rb_treeIiSt4pairIKiNSt7__cxx114listIS0_IiiESaIS4_EEEESt10_Select1stIS7_ESt4lessIiESaIS7_EE8_M_beginEv,"axG",@progbits,_ZNSt8_Rb_treeIiSt4pairIKiNSt7__cxx114listIS0_IiiESaIS4_EEEESt10_Select1stIS7_ESt4lessIiESaIS7_EE8_M_beginEv,comdat
	.align 2
	.weak	_ZNSt8_Rb_treeIiSt4pairIKiNSt7__cxx114listIS0_IiiESaIS4_EEEESt10_Select1stIS7_ESt4lessIiESaIS7_EE8_M_beginEv
	.type	_ZNSt8_Rb_treeIiSt4pairIKiNSt7__cxx114listIS0_IiiESaIS4_EEEESt10_Select1stIS7_ESt4lessIiESaIS7_EE8_M_beginEv, @function
_ZNSt8_Rb_treeIiSt4pairIKiNSt7__cxx114listIS0_IiiESaIS4_EEEESt10_Select1stIS7_ESt4lessIiESaIS7_EE8_M_beginEv:
	pushl	%ebp
	movl	%esp, %ebp
	movl	8(%ebp), %eax
	movl	8(%eax), %eax
	popl	%ebp
	ret
	.size	_ZNSt8_Rb_treeIiSt4pairIKiNSt7__cxx114listIS0_IiiESaIS4_EEEESt10_Select1stIS7_ESt4lessIiESaIS7_EE8_M_beginEv, .-_ZNSt8_Rb_treeIiSt4pairIKiNSt7__cxx114listIS0_IiiESaIS4_EEEESt10_Select1stIS7_ESt4lessIiESaIS7_EE8_M_beginEv
	.section	.text._ZNSt8_Rb_treeIiSt4pairIKiNSt7__cxx114listIS0_IiiESaIS4_EEEESt10_Select1stIS7_ESt4lessIiESaIS7_EE11lower_boundERS1_,"axG",@progbits,_ZNSt8_Rb_treeIiSt4pairIKiNSt7__cxx114listIS0_IiiESaIS4_EEEESt10_Select1stIS7_ESt4lessIiESaIS7_EE11lower_boundERS1_,comdat
	.align 2
	.weak	_ZNSt8_Rb_treeIiSt4pairIKiNSt7__cxx114listIS0_IiiESaIS4_EEEESt10_Select1stIS7_ESt4lessIiESaIS7_EE11lower_boundERS1_
	.type	_ZNSt8_Rb_treeIiSt4pairIKiNSt7__cxx114listIS0_IiiESaIS4_EEEESt10_Select1stIS7_ESt4lessIiESaIS7_EE11lower_boundERS1_, @function
_ZNSt8_Rb_treeIiSt4pairIKiNSt7__cxx114listIS0_IiiESaIS4_EEEESt10_Select1stIS7_ESt4lessIiESaIS7_EE11lower_boundERS1_:
	pushl	%ebp
	movl	%esp, %ebp
	pushl	%ebx
	subl	$36, %esp
	movl	8(%ebp), %eax
	movl	%eax, -28(%ebp)
	movl	12(%ebp), %eax
	movl	%eax, -32(%ebp)
	movl	16(%ebp), %eax
	movl	%eax, -36(%ebp)
	movl	%gs:20, %eax
	movl	%eax, -12(%ebp)
	xorl	%eax, %eax
	subl	$12, %esp
	pushl	-32(%ebp)
	call	_ZNSt8_Rb_treeIiSt4pairIKiNSt7__cxx114listIS0_IiiESaIS4_EEEESt10_Select1stIS7_ESt4lessIiESaIS7_EE6_M_endEv
	addl	$16, %esp
	movl	%eax, %ebx
	subl	$12, %esp
	pushl	-32(%ebp)
	call	_ZNSt8_Rb_treeIiSt4pairIKiNSt7__cxx114listIS0_IiiESaIS4_EEEESt10_Select1stIS7_ESt4lessIiESaIS7_EE8_M_beginEv
	addl	$16, %esp
	movl	%eax, %edx
	movl	-28(%ebp), %eax
	subl	$12, %esp
	pushl	-36(%ebp)
	pushl	%ebx
	pushl	%edx
	pushl	-32(%ebp)
	pushl	%eax
	call	_ZNSt8_Rb_treeIiSt4pairIKiNSt7__cxx114listIS0_IiiESaIS4_EEEESt10_Select1stIS7_ESt4lessIiESaIS7_EE14_M_lower_boundEPSt13_Rb_tree_nodeIS7_ESG_RS1_
	addl	$28, %esp
	movl	-28(%ebp), %eax
	movl	-12(%ebp), %ecx
	xorl	%gs:20, %ecx
	je	.L120
	call	__stack_chk_fail
.L120:
	movl	-4(%ebp), %ebx
	leave
	ret	$4
	.size	_ZNSt8_Rb_treeIiSt4pairIKiNSt7__cxx114listIS0_IiiESaIS4_EEEESt10_Select1stIS7_ESt4lessIiESaIS7_EE11lower_boundERS1_, .-_ZNSt8_Rb_treeIiSt4pairIKiNSt7__cxx114listIS0_IiiESaIS4_EEEESt10_Select1stIS7_ESt4lessIiESaIS7_EE11lower_boundERS1_
	.section	.text._ZNSt8_Rb_treeIiSt4pairIKiNSt7__cxx114listIS0_IiiESaIS4_EEEESt10_Select1stIS7_ESt4lessIiESaIS7_EE3endEv,"axG",@progbits,_ZNSt8_Rb_treeIiSt4pairIKiNSt7__cxx114listIS0_IiiESaIS4_EEEESt10_Select1stIS7_ESt4lessIiESaIS7_EE3endEv,comdat
	.align 2
	.weak	_ZNSt8_Rb_treeIiSt4pairIKiNSt7__cxx114listIS0_IiiESaIS4_EEEESt10_Select1stIS7_ESt4lessIiESaIS7_EE3endEv
	.type	_ZNSt8_Rb_treeIiSt4pairIKiNSt7__cxx114listIS0_IiiESaIS4_EEEESt10_Select1stIS7_ESt4lessIiESaIS7_EE3endEv, @function
_ZNSt8_Rb_treeIiSt4pairIKiNSt7__cxx114listIS0_IiiESaIS4_EEEESt10_Select1stIS7_ESt4lessIiESaIS7_EE3endEv:
	pushl	%ebp
	movl	%esp, %ebp
	subl	$8, %esp
	movl	12(%ebp), %eax
	addl	$4, %eax
	subl	$8, %esp
	pushl	%eax
	pushl	8(%ebp)
	call	_ZNSt17_Rb_tree_iteratorISt4pairIKiNSt7__cxx114listIS0_IiiESaIS4_EEEEEC1EPSt13_Rb_tree_nodeIS7_E
	addl	$16, %esp
	movl	8(%ebp), %eax
	leave
	ret	$4
	.size	_ZNSt8_Rb_treeIiSt4pairIKiNSt7__cxx114listIS0_IiiESaIS4_EEEESt10_Select1stIS7_ESt4lessIiESaIS7_EE3endEv, .-_ZNSt8_Rb_treeIiSt4pairIKiNSt7__cxx114listIS0_IiiESaIS4_EEEESt10_Select1stIS7_ESt4lessIiESaIS7_EE3endEv
	.section	.text._ZNKSt8_Rb_treeIiSt4pairIKiNSt7__cxx114listIS0_IiiESaIS4_EEEESt10_Select1stIS7_ESt4lessIiESaIS7_EE8key_compEv,"axG",@progbits,_ZNKSt8_Rb_treeIiSt4pairIKiNSt7__cxx114listIS0_IiiESaIS4_EEEESt10_Select1stIS7_ESt4lessIiESaIS7_EE8key_compEv,comdat
	.align 2
	.weak	_ZNKSt8_Rb_treeIiSt4pairIKiNSt7__cxx114listIS0_IiiESaIS4_EEEESt10_Select1stIS7_ESt4lessIiESaIS7_EE8key_compEv
	.type	_ZNKSt8_Rb_treeIiSt4pairIKiNSt7__cxx114listIS0_IiiESaIS4_EEEESt10_Select1stIS7_ESt4lessIiESaIS7_EE8key_compEv, @function
_ZNKSt8_Rb_treeIiSt4pairIKiNSt7__cxx114listIS0_IiiESaIS4_EEEESt10_Select1stIS7_ESt4lessIiESaIS7_EE8key_compEv:
	pushl	%ebp
	movl	%esp, %ebp
	nop
	movl	8(%ebp), %eax
	popl	%ebp
	ret	$4
	.size	_ZNKSt8_Rb_treeIiSt4pairIKiNSt7__cxx114listIS0_IiiESaIS4_EEEESt10_Select1stIS7_ESt4lessIiESaIS7_EE8key_compEv, .-_ZNKSt8_Rb_treeIiSt4pairIKiNSt7__cxx114listIS0_IiiESaIS4_EEEESt10_Select1stIS7_ESt4lessIiESaIS7_EE8key_compEv
	.section	.text._ZNSt13_Rb_tree_nodeISt4pairIKiNSt7__cxx114listIS0_IiiESaIS4_EEEEE9_M_valptrEv,"axG",@progbits,_ZNSt13_Rb_tree_nodeISt4pairIKiNSt7__cxx114listIS0_IiiESaIS4_EEEEE9_M_valptrEv,comdat
	.align 2
	.weak	_ZNSt13_Rb_tree_nodeISt4pairIKiNSt7__cxx114listIS0_IiiESaIS4_EEEEE9_M_valptrEv
	.type	_ZNSt13_Rb_tree_nodeISt4pairIKiNSt7__cxx114listIS0_IiiESaIS4_EEEEE9_M_valptrEv, @function
_ZNSt13_Rb_tree_nodeISt4pairIKiNSt7__cxx114listIS0_IiiESaIS4_EEEEE9_M_valptrEv:
	pushl	%ebp
	movl	%esp, %ebp
	subl	$8, %esp
	movl	8(%ebp), %eax
	addl	$16, %eax
	subl	$12, %esp
	pushl	%eax
	call	_ZSt11__addressofISt4pairIKiNSt7__cxx114listIS0_IiiESaIS4_EEEEEPT_RS8_
	addl	$16, %esp
	leave
	ret
	.size	_ZNSt13_Rb_tree_nodeISt4pairIKiNSt7__cxx114listIS0_IiiESaIS4_EEEEE9_M_valptrEv, .-_ZNSt13_Rb_tree_nodeISt4pairIKiNSt7__cxx114listIS0_IiiESaIS4_EEEEE9_M_valptrEv
	.section	.text._ZNSt7__cxx1110_List_baseISt4pairIiiESaIS2_EEC2Ev,"axG",@progbits,_ZNSt7__cxx1110_List_baseISt4pairIiiESaIS2_EEC5Ev,comdat
	.align 2
	.weak	_ZNSt7__cxx1110_List_baseISt4pairIiiESaIS2_EEC2Ev
	.type	_ZNSt7__cxx1110_List_baseISt4pairIiiESaIS2_EEC2Ev, @function
_ZNSt7__cxx1110_List_baseISt4pairIiiESaIS2_EEC2Ev:
	pushl	%ebp
	movl	%esp, %ebp
	subl	$8, %esp
	movl	8(%ebp), %eax
	subl	$12, %esp
	pushl	%eax
	call	_ZNSt7__cxx1110_List_baseISt4pairIiiESaIS2_EE10_List_implC1Ev
	addl	$16, %esp
	subl	$12, %esp
	pushl	8(%ebp)
	call	_ZNSt7__cxx1110_List_baseISt4pairIiiESaIS2_EE7_M_initEv
	addl	$16, %esp
	nop
	leave
	ret
	.size	_ZNSt7__cxx1110_List_baseISt4pairIiiESaIS2_EEC2Ev, .-_ZNSt7__cxx1110_List_baseISt4pairIiiESaIS2_EEC2Ev
	.weak	_ZNSt7__cxx1110_List_baseISt4pairIiiESaIS2_EEC1Ev
	.set	_ZNSt7__cxx1110_List_baseISt4pairIiiESaIS2_EEC1Ev,_ZNSt7__cxx1110_List_baseISt4pairIiiESaIS2_EEC2Ev
	.section	.text._ZNSaISt10_List_nodeISt4pairIiiEEED2Ev,"axG",@progbits,_ZNSaISt10_List_nodeISt4pairIiiEEED5Ev,comdat
	.align 2
	.weak	_ZNSaISt10_List_nodeISt4pairIiiEEED2Ev
	.type	_ZNSaISt10_List_nodeISt4pairIiiEEED2Ev, @function
_ZNSaISt10_List_nodeISt4pairIiiEEED2Ev:
	pushl	%ebp
	movl	%esp, %ebp
	subl	$8, %esp
	subl	$12, %esp
	pushl	8(%ebp)
	call	_ZN9__gnu_cxx13new_allocatorISt10_List_nodeISt4pairIiiEEED2Ev
	addl	$16, %esp
	nop
	leave
	ret
	.size	_ZNSaISt10_List_nodeISt4pairIiiEEED2Ev, .-_ZNSaISt10_List_nodeISt4pairIiiEEED2Ev
	.weak	_ZNSaISt10_List_nodeISt4pairIiiEEED1Ev
	.set	_ZNSaISt10_List_nodeISt4pairIiiEEED1Ev,_ZNSaISt10_List_nodeISt4pairIiiEEED2Ev
	.section	.text._ZNSt7__cxx1110_List_baseISt4pairIiiESaIS2_EE8_M_clearEv,"axG",@progbits,_ZNSt7__cxx1110_List_baseISt4pairIiiESaIS2_EE8_M_clearEv,comdat
	.align 2
	.weak	_ZNSt7__cxx1110_List_baseISt4pairIiiESaIS2_EE8_M_clearEv
	.type	_ZNSt7__cxx1110_List_baseISt4pairIiiESaIS2_EE8_M_clearEv, @function
_ZNSt7__cxx1110_List_baseISt4pairIiiESaIS2_EE8_M_clearEv:
	pushl	%ebp
	movl	%esp, %ebp
	pushl	%ebx
	subl	$36, %esp
	movl	8(%ebp), %eax
	movl	%eax, -28(%ebp)
	movl	%gs:20, %eax
	movl	%eax, -12(%ebp)
	xorl	%eax, %eax
	movl	-28(%ebp), %eax
	movl	(%eax), %eax
	movl	%eax, -20(%ebp)
.L131:
	movl	-28(%ebp), %eax
	cmpl	-20(%ebp), %eax
	je	.L133
	movl	-20(%ebp), %eax
	movl	%eax, -16(%ebp)
	movl	-16(%ebp), %eax
	movl	(%eax), %eax
	movl	%eax, -20(%ebp)
	movl	-16(%ebp), %eax
	addl	$8, %eax
	subl	$12, %esp
	pushl	%eax
	call	_ZSt11__addressofISt4pairIiiEEPT_RS2_
	addl	$16, %esp
	movl	%eax, %ebx
	leal	-21(%ebp), %eax
	subl	$8, %esp
	pushl	-28(%ebp)
	pushl	%eax
	call	_ZNKSt7__cxx1110_List_baseISt4pairIiiESaIS2_EE19_M_get_Tp_allocatorEv
	addl	$12, %esp
	subl	$8, %esp
	pushl	%ebx
	leal	-21(%ebp), %eax
	pushl	%eax
	call	_ZN9__gnu_cxx13new_allocatorISt4pairIiiEE7destroyEPS2_
	addl	$16, %esp
	subl	$12, %esp
	leal	-21(%ebp), %eax
	pushl	%eax
	call	_ZNSaISt4pairIiiEED1Ev
	addl	$16, %esp
	subl	$8, %esp
	pushl	-16(%ebp)
	pushl	-28(%ebp)
	call	_ZNSt7__cxx1110_List_baseISt4pairIiiESaIS2_EE11_M_put_nodeEPSt10_List_nodeIS2_E
	addl	$16, %esp
	jmp	.L131
.L133:
	nop
	movl	-12(%ebp), %eax
	xorl	%gs:20, %eax
	je	.L132
	call	__stack_chk_fail
.L132:
	movl	-4(%ebp), %ebx
	leave
	ret
	.size	_ZNSt7__cxx1110_List_baseISt4pairIiiESaIS2_EE8_M_clearEv, .-_ZNSt7__cxx1110_List_baseISt4pairIiiESaIS2_EE8_M_clearEv
	.section	.text._ZNSt7__cxx114listISt4pairIiiESaIS2_EEC2ERKS4_,"axG",@progbits,_ZNSt7__cxx114listISt4pairIiiESaIS2_EEC5ERKS4_,comdat
	.align 2
	.weak	_ZNSt7__cxx114listISt4pairIiiESaIS2_EEC2ERKS4_
	.type	_ZNSt7__cxx114listISt4pairIiiESaIS2_EEC2ERKS4_, @function
_ZNSt7__cxx114listISt4pairIiiESaIS2_EEC2ERKS4_:
	pushl	%ebp
	movl	%esp, %ebp
	pushl	%ebx
	subl	$36, %esp
	movl	8(%ebp), %eax
	movl	%eax, -28(%ebp)
	movl	12(%ebp), %eax
	movl	%eax, -32(%ebp)
	movl	%gs:20, %eax
	movl	%eax, -12(%ebp)
	xorl	%eax, %eax
	movl	-32(%ebp), %eax
	subl	$12, %esp
	pushl	%eax
	call	_ZNKSt7__cxx1110_List_baseISt4pairIiiESaIS2_EE21_M_get_Node_allocatorEv
	addl	$16, %esp
	movl	%eax, %edx
	movl	-28(%ebp), %eax
	subl	$8, %esp
	pushl	%edx
	pushl	%eax
	call	_ZNSt7__cxx1110_List_baseISt4pairIiiESaIS2_EEC2ERKSaISt10_List_nodeIS2_EE
	addl	$16, %esp
	leal	-20(%ebp), %eax
	subl	$8, %esp
	pushl	-32(%ebp)
	pushl	%eax
	call	_ZNKSt7__cxx114listISt4pairIiiESaIS2_EE3endEv
	addl	$12, %esp
	leal	-16(%ebp), %eax
	subl	$8, %esp
	pushl	-32(%ebp)
	pushl	%eax
	call	_ZNKSt7__cxx114listISt4pairIiiESaIS2_EE5beginEv
	addl	$12, %esp
	pushl	%ebx
	pushl	-20(%ebp)
	pushl	-16(%ebp)
	pushl	-28(%ebp)
	call	_ZNSt7__cxx114listISt4pairIiiESaIS2_EE22_M_initialize_dispatchISt20_List_const_iteratorIS2_EEEvT_S8_St12__false_type
	addl	$16, %esp
	nop
	movl	-12(%ebp), %eax
	xorl	%gs:20, %eax
	je	.L135
	call	__stack_chk_fail
.L135:
	movl	-4(%ebp), %ebx
	leave
	ret
	.size	_ZNSt7__cxx114listISt4pairIiiESaIS2_EEC2ERKS4_, .-_ZNSt7__cxx114listISt4pairIiiESaIS2_EEC2ERKS4_
	.weak	_ZNSt7__cxx114listISt4pairIiiESaIS2_EEC1ERKS4_
	.set	_ZNSt7__cxx114listISt4pairIiiESaIS2_EEC1ERKS4_,_ZNSt7__cxx114listISt4pairIiiESaIS2_EEC2ERKS4_
	.section	.text._ZNSt23_Rb_tree_const_iteratorISt4pairIKiNSt7__cxx114listIS0_IiiESaIS4_EEEEEC2ERKSt17_Rb_tree_iteratorIS7_E,"axG",@progbits,_ZNSt23_Rb_tree_const_iteratorISt4pairIKiNSt7__cxx114listIS0_IiiESaIS4_EEEEEC5ERKSt17_Rb_tree_iteratorIS7_E,comdat
	.align 2
	.weak	_ZNSt23_Rb_tree_const_iteratorISt4pairIKiNSt7__cxx114listIS0_IiiESaIS4_EEEEEC2ERKSt17_Rb_tree_iteratorIS7_E
	.type	_ZNSt23_Rb_tree_const_iteratorISt4pairIKiNSt7__cxx114listIS0_IiiESaIS4_EEEEEC2ERKSt17_Rb_tree_iteratorIS7_E, @function
_ZNSt23_Rb_tree_const_iteratorISt4pairIKiNSt7__cxx114listIS0_IiiESaIS4_EEEEEC2ERKSt17_Rb_tree_iteratorIS7_E:
	pushl	%ebp
	movl	%esp, %ebp
	movl	12(%ebp), %eax
	movl	(%eax), %edx
	movl	8(%ebp), %eax
	movl	%edx, (%eax)
	nop
	popl	%ebp
	ret
	.size	_ZNSt23_Rb_tree_const_iteratorISt4pairIKiNSt7__cxx114listIS0_IiiESaIS4_EEEEEC2ERKSt17_Rb_tree_iteratorIS7_E, .-_ZNSt23_Rb_tree_const_iteratorISt4pairIKiNSt7__cxx114listIS0_IiiESaIS4_EEEEEC2ERKSt17_Rb_tree_iteratorIS7_E
	.weak	_ZNSt23_Rb_tree_const_iteratorISt4pairIKiNSt7__cxx114listIS0_IiiESaIS4_EEEEEC1ERKSt17_Rb_tree_iteratorIS7_E
	.set	_ZNSt23_Rb_tree_const_iteratorISt4pairIKiNSt7__cxx114listIS0_IiiESaIS4_EEEEEC1ERKSt17_Rb_tree_iteratorIS7_E,_ZNSt23_Rb_tree_const_iteratorISt4pairIKiNSt7__cxx114listIS0_IiiESaIS4_EEEEEC2ERKSt17_Rb_tree_iteratorIS7_E
	.section	.text._ZNSt8_Rb_treeIiSt4pairIKiNSt7__cxx114listIS0_IiiESaIS4_EEEESt10_Select1stIS7_ESt4lessIiESaIS7_EE17_M_insert_unique_ESt23_Rb_tree_const_iteratorIS7_ERKS7_,"axG",@progbits,_ZNSt8_Rb_treeIiSt4pairIKiNSt7__cxx114listIS0_IiiESaIS4_EEEESt10_Select1stIS7_ESt4lessIiESaIS7_EE17_M_insert_unique_ESt23_Rb_tree_const_iteratorIS7_ERKS7_,comdat
	.align 2
	.weak	_ZNSt8_Rb_treeIiSt4pairIKiNSt7__cxx114listIS0_IiiESaIS4_EEEESt10_Select1stIS7_ESt4lessIiESaIS7_EE17_M_insert_unique_ESt23_Rb_tree_const_iteratorIS7_ERKS7_
	.type	_ZNSt8_Rb_treeIiSt4pairIKiNSt7__cxx114listIS0_IiiESaIS4_EEEESt10_Select1stIS7_ESt4lessIiESaIS7_EE17_M_insert_unique_ESt23_Rb_tree_const_iteratorIS7_ERKS7_, @function
_ZNSt8_Rb_treeIiSt4pairIKiNSt7__cxx114listIS0_IiiESaIS4_EEEESt10_Select1stIS7_ESt4lessIiESaIS7_EE17_M_insert_unique_ESt23_Rb_tree_const_iteratorIS7_ERKS7_:
	pushl	%ebp
	movl	%esp, %ebp
	subl	$40, %esp
	movl	8(%ebp), %eax
	movl	%eax, -28(%ebp)
	movl	12(%ebp), %eax
	movl	%eax, -32(%ebp)
	movl	20(%ebp), %eax
	movl	%eax, -36(%ebp)
	movl	%gs:20, %eax
	movl	%eax, -12(%ebp)
	xorl	%eax, %eax
	subl	$8, %esp
	pushl	-32(%ebp)
	leal	-16(%ebp), %eax
	pushl	%eax
	call	_ZNSt8_Rb_treeIiSt4pairIKiNSt7__cxx114listIS0_IiiESaIS4_EEEESt10_Select1stIS7_ESt4lessIiESaIS7_EE11_Alloc_nodeC1ERSD_
	addl	$16, %esp
	movl	-28(%ebp), %eax
	subl	$12, %esp
	leal	-16(%ebp), %edx
	pushl	%edx
	pushl	-36(%ebp)
	pushl	16(%ebp)
	pushl	-32(%ebp)
	pushl	%eax
	call	_ZNSt8_Rb_treeIiSt4pairIKiNSt7__cxx114listIS0_IiiESaIS4_EEEESt10_Select1stIS7_ESt4lessIiESaIS7_EE17_M_insert_unique_INSD_11_Alloc_nodeEEESt17_Rb_tree_iteratorIS7_ESt23_Rb_tree_const_iteratorIS7_ERKS7_RT_
	addl	$28, %esp
	movl	-28(%ebp), %eax
	movl	-12(%ebp), %ecx
	xorl	%gs:20, %ecx
	je	.L139
	call	__stack_chk_fail
.L139:
	leave
	ret	$4
	.size	_ZNSt8_Rb_treeIiSt4pairIKiNSt7__cxx114listIS0_IiiESaIS4_EEEESt10_Select1stIS7_ESt4lessIiESaIS7_EE17_M_insert_unique_ESt23_Rb_tree_const_iteratorIS7_ERKS7_, .-_ZNSt8_Rb_treeIiSt4pairIKiNSt7__cxx114listIS0_IiiESaIS4_EEEESt10_Select1stIS7_ESt4lessIiESaIS7_EE17_M_insert_unique_ESt23_Rb_tree_const_iteratorIS7_ERKS7_
	.section	.text._ZNSt14_List_iteratorISt4pairIiiEEC2EPNSt8__detail15_List_node_baseE,"axG",@progbits,_ZNSt14_List_iteratorISt4pairIiiEEC5EPNSt8__detail15_List_node_baseE,comdat
	.align 2
	.weak	_ZNSt14_List_iteratorISt4pairIiiEEC2EPNSt8__detail15_List_node_baseE
	.type	_ZNSt14_List_iteratorISt4pairIiiEEC2EPNSt8__detail15_List_node_baseE, @function
_ZNSt14_List_iteratorISt4pairIiiEEC2EPNSt8__detail15_List_node_baseE:
	pushl	%ebp
	movl	%esp, %ebp
	movl	8(%ebp), %eax
	movl	12(%ebp), %edx
	movl	%edx, (%eax)
	nop
	popl	%ebp
	ret
	.size	_ZNSt14_List_iteratorISt4pairIiiEEC2EPNSt8__detail15_List_node_baseE, .-_ZNSt14_List_iteratorISt4pairIiiEEC2EPNSt8__detail15_List_node_baseE
	.weak	_ZNSt14_List_iteratorISt4pairIiiEEC1EPNSt8__detail15_List_node_baseE
	.set	_ZNSt14_List_iteratorISt4pairIiiEEC1EPNSt8__detail15_List_node_baseE,_ZNSt14_List_iteratorISt4pairIiiEEC2EPNSt8__detail15_List_node_baseE
	.section	.text._ZNSt7__cxx114listISt4pairIiiESaIS2_EE14_M_create_nodeERKS2_,"axG",@progbits,_ZNSt7__cxx114listISt4pairIiiESaIS2_EE14_M_create_nodeERKS2_,comdat
	.align 2
	.weak	_ZNSt7__cxx114listISt4pairIiiESaIS2_EE14_M_create_nodeERKS2_
	.type	_ZNSt7__cxx114listISt4pairIiiESaIS2_EE14_M_create_nodeERKS2_, @function
_ZNSt7__cxx114listISt4pairIiiESaIS2_EE14_M_create_nodeERKS2_:
	pushl	%ebp
	movl	%esp, %ebp
	pushl	%ebx
	subl	$36, %esp
	movl	8(%ebp), %eax
	movl	%eax, -28(%ebp)
	movl	12(%ebp), %eax
	movl	%eax, -32(%ebp)
	movl	%gs:20, %eax
	movl	%eax, -12(%ebp)
	xorl	%eax, %eax
	movl	-28(%ebp), %eax
	subl	$12, %esp
	pushl	%eax
	call	_ZNSt7__cxx1110_List_baseISt4pairIiiESaIS2_EE11_M_get_nodeEv
	addl	$16, %esp
	movl	%eax, -16(%ebp)
	movl	-16(%ebp), %eax
	addl	$8, %eax
	subl	$12, %esp
	pushl	%eax
	call	_ZSt11__addressofISt4pairIiiEEPT_RS2_
	addl	$16, %esp
	movl	%eax, %ebx
	movl	-28(%ebp), %edx
	leal	-17(%ebp), %eax
	subl	$8, %esp
	pushl	%edx
	pushl	%eax
	call	_ZNKSt7__cxx1110_List_baseISt4pairIiiESaIS2_EE19_M_get_Tp_allocatorEv
	addl	$12, %esp
	subl	$4, %esp
	pushl	-32(%ebp)
	pushl	%ebx
	leal	-17(%ebp), %eax
	pushl	%eax
	call	_ZN9__gnu_cxx13new_allocatorISt4pairIiiEE9constructEPS2_RKS2_
	addl	$16, %esp
	subl	$12, %esp
	leal	-17(%ebp), %eax
	pushl	%eax
	call	_ZNSaISt4pairIiiEED1Ev
	addl	$16, %esp
	movl	-16(%ebp), %eax
	movl	-12(%ebp), %ecx
	xorl	%gs:20, %ecx
	je	.L143
	call	__stack_chk_fail
.L143:
	movl	-4(%ebp), %ebx
	leave
	ret
	.size	_ZNSt7__cxx114listISt4pairIiiESaIS2_EE14_M_create_nodeERKS2_, .-_ZNSt7__cxx114listISt4pairIiiESaIS2_EE14_M_create_nodeERKS2_
	.section	.text._ZNSt7__cxx1110_List_baseISt4pairIiiESaIS2_EE11_M_inc_sizeEj,"axG",@progbits,_ZNSt7__cxx1110_List_baseISt4pairIiiESaIS2_EE11_M_inc_sizeEj,comdat
	.align 2
	.weak	_ZNSt7__cxx1110_List_baseISt4pairIiiESaIS2_EE11_M_inc_sizeEj
	.type	_ZNSt7__cxx1110_List_baseISt4pairIiiESaIS2_EE11_M_inc_sizeEj, @function
_ZNSt7__cxx1110_List_baseISt4pairIiiESaIS2_EE11_M_inc_sizeEj:
	pushl	%ebp
	movl	%esp, %ebp
	movl	8(%ebp), %eax
	movl	8(%eax), %edx
	movl	12(%ebp), %eax
	addl	%eax, %edx
	movl	8(%ebp), %eax
	movl	%edx, 8(%eax)
	nop
	popl	%ebp
	ret
	.size	_ZNSt7__cxx1110_List_baseISt4pairIiiESaIS2_EE11_M_inc_sizeEj, .-_ZNSt7__cxx1110_List_baseISt4pairIiiESaIS2_EE11_M_inc_sizeEj
	.section	.text._ZNSaISt13_Rb_tree_nodeISt4pairIKiNSt7__cxx114listIS0_IiiESaIS4_EEEEEEC2Ev,"axG",@progbits,_ZNSaISt13_Rb_tree_nodeISt4pairIKiNSt7__cxx114listIS0_IiiESaIS4_EEEEEEC5Ev,comdat
	.align 2
	.weak	_ZNSaISt13_Rb_tree_nodeISt4pairIKiNSt7__cxx114listIS0_IiiESaIS4_EEEEEEC2Ev
	.type	_ZNSaISt13_Rb_tree_nodeISt4pairIKiNSt7__cxx114listIS0_IiiESaIS4_EEEEEEC2Ev, @function
_ZNSaISt13_Rb_tree_nodeISt4pairIKiNSt7__cxx114listIS0_IiiESaIS4_EEEEEEC2Ev:
	pushl	%ebp
	movl	%esp, %ebp
	subl	$8, %esp
	subl	$12, %esp
	pushl	8(%ebp)
	call	_ZN9__gnu_cxx13new_allocatorISt13_Rb_tree_nodeISt4pairIKiNSt7__cxx114listIS2_IiiESaIS6_EEEEEEC2Ev
	addl	$16, %esp
	nop
	leave
	ret
	.size	_ZNSaISt13_Rb_tree_nodeISt4pairIKiNSt7__cxx114listIS0_IiiESaIS4_EEEEEEC2Ev, .-_ZNSaISt13_Rb_tree_nodeISt4pairIKiNSt7__cxx114listIS0_IiiESaIS4_EEEEEEC2Ev
	.weak	_ZNSaISt13_Rb_tree_nodeISt4pairIKiNSt7__cxx114listIS0_IiiESaIS4_EEEEEEC1Ev
	.set	_ZNSaISt13_Rb_tree_nodeISt4pairIKiNSt7__cxx114listIS0_IiiESaIS4_EEEEEEC1Ev,_ZNSaISt13_Rb_tree_nodeISt4pairIKiNSt7__cxx114listIS0_IiiESaIS4_EEEEEEC2Ev
	.section	.text._ZNSt8_Rb_treeIiSt4pairIKiNSt7__cxx114listIS0_IiiESaIS4_EEEESt10_Select1stIS7_ESt4lessIiESaIS7_EE13_Rb_tree_implISB_Lb0EE13_M_initializeEv,"axG",@progbits,_ZNSt8_Rb_treeIiSt4pairIKiNSt7__cxx114listIS0_IiiESaIS4_EEEESt10_Select1stIS7_ESt4lessIiESaIS7_EE13_Rb_tree_implISB_Lb0EE13_M_initializeEv,comdat
	.align 2
	.weak	_ZNSt8_Rb_treeIiSt4pairIKiNSt7__cxx114listIS0_IiiESaIS4_EEEESt10_Select1stIS7_ESt4lessIiESaIS7_EE13_Rb_tree_implISB_Lb0EE13_M_initializeEv
	.type	_ZNSt8_Rb_treeIiSt4pairIKiNSt7__cxx114listIS0_IiiESaIS4_EEEESt10_Select1stIS7_ESt4lessIiESaIS7_EE13_Rb_tree_implISB_Lb0EE13_M_initializeEv, @function
_ZNSt8_Rb_treeIiSt4pairIKiNSt7__cxx114listIS0_IiiESaIS4_EEEESt10_Select1stIS7_ESt4lessIiESaIS7_EE13_Rb_tree_implISB_Lb0EE13_M_initializeEv:
	pushl	%ebp
	movl	%esp, %ebp
	movl	8(%ebp), %eax
	movl	$0, 4(%eax)
	movl	8(%ebp), %eax
	movl	$0, 8(%eax)
	movl	8(%ebp), %eax
	leal	4(%eax), %edx
	movl	8(%ebp), %eax
	movl	%edx, 12(%eax)
	movl	8(%ebp), %eax
	leal	4(%eax), %edx
	movl	8(%ebp), %eax
	movl	%edx, 16(%eax)
	nop
	popl	%ebp
	ret
	.size	_ZNSt8_Rb_treeIiSt4pairIKiNSt7__cxx114listIS0_IiiESaIS4_EEEESt10_Select1stIS7_ESt4lessIiESaIS7_EE13_Rb_tree_implISB_Lb0EE13_M_initializeEv, .-_ZNSt8_Rb_treeIiSt4pairIKiNSt7__cxx114listIS0_IiiESaIS4_EEEESt10_Select1stIS7_ESt4lessIiESaIS7_EE13_Rb_tree_implISB_Lb0EE13_M_initializeEv
	.section	.text._ZN9__gnu_cxx13new_allocatorISt13_Rb_tree_nodeISt4pairIKiNSt7__cxx114listIS2_IiiESaIS6_EEEEEED2Ev,"axG",@progbits,_ZN9__gnu_cxx13new_allocatorISt13_Rb_tree_nodeISt4pairIKiNSt7__cxx114listIS2_IiiESaIS6_EEEEEED5Ev,comdat
	.align 2
	.weak	_ZN9__gnu_cxx13new_allocatorISt13_Rb_tree_nodeISt4pairIKiNSt7__cxx114listIS2_IiiESaIS6_EEEEEED2Ev
	.type	_ZN9__gnu_cxx13new_allocatorISt13_Rb_tree_nodeISt4pairIKiNSt7__cxx114listIS2_IiiESaIS6_EEEEEED2Ev, @function
_ZN9__gnu_cxx13new_allocatorISt13_Rb_tree_nodeISt4pairIKiNSt7__cxx114listIS2_IiiESaIS6_EEEEEED2Ev:
	pushl	%ebp
	movl	%esp, %ebp
	nop
	popl	%ebp
	ret
	.size	_ZN9__gnu_cxx13new_allocatorISt13_Rb_tree_nodeISt4pairIKiNSt7__cxx114listIS2_IiiESaIS6_EEEEEED2Ev, .-_ZN9__gnu_cxx13new_allocatorISt13_Rb_tree_nodeISt4pairIKiNSt7__cxx114listIS2_IiiESaIS6_EEEEEED2Ev
	.weak	_ZN9__gnu_cxx13new_allocatorISt13_Rb_tree_nodeISt4pairIKiNSt7__cxx114listIS2_IiiESaIS6_EEEEEED1Ev
	.set	_ZN9__gnu_cxx13new_allocatorISt13_Rb_tree_nodeISt4pairIKiNSt7__cxx114listIS2_IiiESaIS6_EEEEEED1Ev,_ZN9__gnu_cxx13new_allocatorISt13_Rb_tree_nodeISt4pairIKiNSt7__cxx114listIS2_IiiESaIS6_EEEEEED2Ev
	.section	.text._ZNSt8_Rb_treeIiSt4pairIKiNSt7__cxx114listIS0_IiiESaIS4_EEEESt10_Select1stIS7_ESt4lessIiESaIS7_EE8_S_rightEPSt18_Rb_tree_node_base,"axG",@progbits,_ZNSt8_Rb_treeIiSt4pairIKiNSt7__cxx114listIS0_IiiESaIS4_EEEESt10_Select1stIS7_ESt4lessIiESaIS7_EE8_S_rightEPSt18_Rb_tree_node_base,comdat
	.weak	_ZNSt8_Rb_treeIiSt4pairIKiNSt7__cxx114listIS0_IiiESaIS4_EEEESt10_Select1stIS7_ESt4lessIiESaIS7_EE8_S_rightEPSt18_Rb_tree_node_base
	.type	_ZNSt8_Rb_treeIiSt4pairIKiNSt7__cxx114listIS0_IiiESaIS4_EEEESt10_Select1stIS7_ESt4lessIiESaIS7_EE8_S_rightEPSt18_Rb_tree_node_base, @function
_ZNSt8_Rb_treeIiSt4pairIKiNSt7__cxx114listIS0_IiiESaIS4_EEEESt10_Select1stIS7_ESt4lessIiESaIS7_EE8_S_rightEPSt18_Rb_tree_node_base:
	pushl	%ebp
	movl	%esp, %ebp
	movl	8(%ebp), %eax
	movl	12(%eax), %eax
	popl	%ebp
	ret
	.size	_ZNSt8_Rb_treeIiSt4pairIKiNSt7__cxx114listIS0_IiiESaIS4_EEEESt10_Select1stIS7_ESt4lessIiESaIS7_EE8_S_rightEPSt18_Rb_tree_node_base, .-_ZNSt8_Rb_treeIiSt4pairIKiNSt7__cxx114listIS0_IiiESaIS4_EEEESt10_Select1stIS7_ESt4lessIiESaIS7_EE8_S_rightEPSt18_Rb_tree_node_base
	.section	.text._ZNSt8_Rb_treeIiSt4pairIKiNSt7__cxx114listIS0_IiiESaIS4_EEEESt10_Select1stIS7_ESt4lessIiESaIS7_EE7_S_leftEPSt18_Rb_tree_node_base,"axG",@progbits,_ZNSt8_Rb_treeIiSt4pairIKiNSt7__cxx114listIS0_IiiESaIS4_EEEESt10_Select1stIS7_ESt4lessIiESaIS7_EE7_S_leftEPSt18_Rb_tree_node_base,comdat
	.weak	_ZNSt8_Rb_treeIiSt4pairIKiNSt7__cxx114listIS0_IiiESaIS4_EEEESt10_Select1stIS7_ESt4lessIiESaIS7_EE7_S_leftEPSt18_Rb_tree_node_base
	.type	_ZNSt8_Rb_treeIiSt4pairIKiNSt7__cxx114listIS0_IiiESaIS4_EEEESt10_Select1stIS7_ESt4lessIiESaIS7_EE7_S_leftEPSt18_Rb_tree_node_base, @function
_ZNSt8_Rb_treeIiSt4pairIKiNSt7__cxx114listIS0_IiiESaIS4_EEEESt10_Select1stIS7_ESt4lessIiESaIS7_EE7_S_leftEPSt18_Rb_tree_node_base:
	pushl	%ebp
	movl	%esp, %ebp
	movl	8(%ebp), %eax
	movl	8(%eax), %eax
	popl	%ebp
	ret
	.size	_ZNSt8_Rb_treeIiSt4pairIKiNSt7__cxx114listIS0_IiiESaIS4_EEEESt10_Select1stIS7_ESt4lessIiESaIS7_EE7_S_leftEPSt18_Rb_tree_node_base, .-_ZNSt8_Rb_treeIiSt4pairIKiNSt7__cxx114listIS0_IiiESaIS4_EEEESt10_Select1stIS7_ESt4lessIiESaIS7_EE7_S_leftEPSt18_Rb_tree_node_base
	.section	.text._ZNSt8_Rb_treeIiSt4pairIKiNSt7__cxx114listIS0_IiiESaIS4_EEEESt10_Select1stIS7_ESt4lessIiESaIS7_EE12_M_drop_nodeEPSt13_Rb_tree_nodeIS7_E,"axG",@progbits,_ZNSt8_Rb_treeIiSt4pairIKiNSt7__cxx114listIS0_IiiESaIS4_EEEESt10_Select1stIS7_ESt4lessIiESaIS7_EE12_M_drop_nodeEPSt13_Rb_tree_nodeIS7_E,comdat
	.align 2
	.weak	_ZNSt8_Rb_treeIiSt4pairIKiNSt7__cxx114listIS0_IiiESaIS4_EEEESt10_Select1stIS7_ESt4lessIiESaIS7_EE12_M_drop_nodeEPSt13_Rb_tree_nodeIS7_E
	.type	_ZNSt8_Rb_treeIiSt4pairIKiNSt7__cxx114listIS0_IiiESaIS4_EEEESt10_Select1stIS7_ESt4lessIiESaIS7_EE12_M_drop_nodeEPSt13_Rb_tree_nodeIS7_E, @function
_ZNSt8_Rb_treeIiSt4pairIKiNSt7__cxx114listIS0_IiiESaIS4_EEEESt10_Select1stIS7_ESt4lessIiESaIS7_EE12_M_drop_nodeEPSt13_Rb_tree_nodeIS7_E:
	pushl	%ebp
	movl	%esp, %ebp
	subl	$8, %esp
	subl	$8, %esp
	pushl	12(%ebp)
	pushl	8(%ebp)
	call	_ZNSt8_Rb_treeIiSt4pairIKiNSt7__cxx114listIS0_IiiESaIS4_EEEESt10_Select1stIS7_ESt4lessIiESaIS7_EE15_M_destroy_nodeEPSt13_Rb_tree_nodeIS7_E
	addl	$16, %esp
	subl	$8, %esp
	pushl	12(%ebp)
	pushl	8(%ebp)
	call	_ZNSt8_Rb_treeIiSt4pairIKiNSt7__cxx114listIS0_IiiESaIS4_EEEESt10_Select1stIS7_ESt4lessIiESaIS7_EE11_M_put_nodeEPSt13_Rb_tree_nodeIS7_E
	addl	$16, %esp
	nop
	leave
	ret
	.size	_ZNSt8_Rb_treeIiSt4pairIKiNSt7__cxx114listIS0_IiiESaIS4_EEEESt10_Select1stIS7_ESt4lessIiESaIS7_EE12_M_drop_nodeEPSt13_Rb_tree_nodeIS7_E, .-_ZNSt8_Rb_treeIiSt4pairIKiNSt7__cxx114listIS0_IiiESaIS4_EEEESt10_Select1stIS7_ESt4lessIiESaIS7_EE12_M_drop_nodeEPSt13_Rb_tree_nodeIS7_E
	.section	.text._ZNSt8_Rb_treeIiSt4pairIKiNSt7__cxx114listIS0_IiiESaIS4_EEEESt10_Select1stIS7_ESt4lessIiESaIS7_EE6_M_endEv,"axG",@progbits,_ZNSt8_Rb_treeIiSt4pairIKiNSt7__cxx114listIS0_IiiESaIS4_EEEESt10_Select1stIS7_ESt4lessIiESaIS7_EE6_M_endEv,comdat
	.align 2
	.weak	_ZNSt8_Rb_treeIiSt4pairIKiNSt7__cxx114listIS0_IiiESaIS4_EEEESt10_Select1stIS7_ESt4lessIiESaIS7_EE6_M_endEv
	.type	_ZNSt8_Rb_treeIiSt4pairIKiNSt7__cxx114listIS0_IiiESaIS4_EEEESt10_Select1stIS7_ESt4lessIiESaIS7_EE6_M_endEv, @function
_ZNSt8_Rb_treeIiSt4pairIKiNSt7__cxx114listIS0_IiiESaIS4_EEEESt10_Select1stIS7_ESt4lessIiESaIS7_EE6_M_endEv:
	pushl	%ebp
	movl	%esp, %ebp
	movl	8(%ebp), %eax
	addl	$4, %eax
	popl	%ebp
	ret
	.size	_ZNSt8_Rb_treeIiSt4pairIKiNSt7__cxx114listIS0_IiiESaIS4_EEEESt10_Select1stIS7_ESt4lessIiESaIS7_EE6_M_endEv, .-_ZNSt8_Rb_treeIiSt4pairIKiNSt7__cxx114listIS0_IiiESaIS4_EEEESt10_Select1stIS7_ESt4lessIiESaIS7_EE6_M_endEv
	.section	.text._ZNSt8_Rb_treeIiSt4pairIKiNSt7__cxx114listIS0_IiiESaIS4_EEEESt10_Select1stIS7_ESt4lessIiESaIS7_EE14_M_lower_boundEPSt13_Rb_tree_nodeIS7_ESG_RS1_,"axG",@progbits,_ZNSt8_Rb_treeIiSt4pairIKiNSt7__cxx114listIS0_IiiESaIS4_EEEESt10_Select1stIS7_ESt4lessIiESaIS7_EE14_M_lower_boundEPSt13_Rb_tree_nodeIS7_ESG_RS1_,comdat
	.align 2
	.weak	_ZNSt8_Rb_treeIiSt4pairIKiNSt7__cxx114listIS0_IiiESaIS4_EEEESt10_Select1stIS7_ESt4lessIiESaIS7_EE14_M_lower_boundEPSt13_Rb_tree_nodeIS7_ESG_RS1_
	.type	_ZNSt8_Rb_treeIiSt4pairIKiNSt7__cxx114listIS0_IiiESaIS4_EEEESt10_Select1stIS7_ESt4lessIiESaIS7_EE14_M_lower_boundEPSt13_Rb_tree_nodeIS7_ESG_RS1_, @function
_ZNSt8_Rb_treeIiSt4pairIKiNSt7__cxx114listIS0_IiiESaIS4_EEEESt10_Select1stIS7_ESt4lessIiESaIS7_EE14_M_lower_boundEPSt13_Rb_tree_nodeIS7_ESG_RS1_:
	pushl	%ebp
	movl	%esp, %ebp
	subl	$8, %esp
.L159:
	cmpl	$0, 16(%ebp)
	je	.L156
	subl	$12, %esp
	pushl	16(%ebp)
	call	_ZNSt8_Rb_treeIiSt4pairIKiNSt7__cxx114listIS0_IiiESaIS4_EEEESt10_Select1stIS7_ESt4lessIiESaIS7_EE6_S_keyEPKSt13_Rb_tree_nodeIS7_E
	addl	$16, %esp
	movl	%eax, %edx
	movl	12(%ebp), %eax
	subl	$4, %esp
	pushl	24(%ebp)
	pushl	%edx
	pushl	%eax
	call	_ZNKSt4lessIiEclERKiS2_
	addl	$16, %esp
	xorl	$1, %eax
	testb	%al, %al
	je	.L157
	movl	16(%ebp), %eax
	movl	%eax, 20(%ebp)
	subl	$12, %esp
	pushl	16(%ebp)
	call	_ZNSt8_Rb_treeIiSt4pairIKiNSt7__cxx114listIS0_IiiESaIS4_EEEESt10_Select1stIS7_ESt4lessIiESaIS7_EE7_S_leftEPSt18_Rb_tree_node_base
	addl	$16, %esp
	movl	%eax, 16(%ebp)
	jmp	.L159
.L157:
	subl	$12, %esp
	pushl	16(%ebp)
	call	_ZNSt8_Rb_treeIiSt4pairIKiNSt7__cxx114listIS0_IiiESaIS4_EEEESt10_Select1stIS7_ESt4lessIiESaIS7_EE8_S_rightEPSt18_Rb_tree_node_base
	addl	$16, %esp
	movl	%eax, 16(%ebp)
	jmp	.L159
.L156:
	subl	$8, %esp
	pushl	20(%ebp)
	pushl	8(%ebp)
	call	_ZNSt17_Rb_tree_iteratorISt4pairIKiNSt7__cxx114listIS0_IiiESaIS4_EEEEEC1EPSt13_Rb_tree_nodeIS7_E
	addl	$16, %esp
	movl	8(%ebp), %eax
	leave
	ret	$4
	.size	_ZNSt8_Rb_treeIiSt4pairIKiNSt7__cxx114listIS0_IiiESaIS4_EEEESt10_Select1stIS7_ESt4lessIiESaIS7_EE14_M_lower_boundEPSt13_Rb_tree_nodeIS7_ESG_RS1_, .-_ZNSt8_Rb_treeIiSt4pairIKiNSt7__cxx114listIS0_IiiESaIS4_EEEESt10_Select1stIS7_ESt4lessIiESaIS7_EE14_M_lower_boundEPSt13_Rb_tree_nodeIS7_ESG_RS1_
	.section	.text._ZNSt17_Rb_tree_iteratorISt4pairIKiNSt7__cxx114listIS0_IiiESaIS4_EEEEEC2EPSt13_Rb_tree_nodeIS7_E,"axG",@progbits,_ZNSt17_Rb_tree_iteratorISt4pairIKiNSt7__cxx114listIS0_IiiESaIS4_EEEEEC5EPSt13_Rb_tree_nodeIS7_E,comdat
	.align 2
	.weak	_ZNSt17_Rb_tree_iteratorISt4pairIKiNSt7__cxx114listIS0_IiiESaIS4_EEEEEC2EPSt13_Rb_tree_nodeIS7_E
	.type	_ZNSt17_Rb_tree_iteratorISt4pairIKiNSt7__cxx114listIS0_IiiESaIS4_EEEEEC2EPSt13_Rb_tree_nodeIS7_E, @function
_ZNSt17_Rb_tree_iteratorISt4pairIKiNSt7__cxx114listIS0_IiiESaIS4_EEEEEC2EPSt13_Rb_tree_nodeIS7_E:
	pushl	%ebp
	movl	%esp, %ebp
	movl	8(%ebp), %eax
	movl	12(%ebp), %edx
	movl	%edx, (%eax)
	nop
	popl	%ebp
	ret
	.size	_ZNSt17_Rb_tree_iteratorISt4pairIKiNSt7__cxx114listIS0_IiiESaIS4_EEEEEC2EPSt13_Rb_tree_nodeIS7_E, .-_ZNSt17_Rb_tree_iteratorISt4pairIKiNSt7__cxx114listIS0_IiiESaIS4_EEEEEC2EPSt13_Rb_tree_nodeIS7_E
	.weak	_ZNSt17_Rb_tree_iteratorISt4pairIKiNSt7__cxx114listIS0_IiiESaIS4_EEEEEC1EPSt13_Rb_tree_nodeIS7_E
	.set	_ZNSt17_Rb_tree_iteratorISt4pairIKiNSt7__cxx114listIS0_IiiESaIS4_EEEEEC1EPSt13_Rb_tree_nodeIS7_E,_ZNSt17_Rb_tree_iteratorISt4pairIKiNSt7__cxx114listIS0_IiiESaIS4_EEEEEC2EPSt13_Rb_tree_nodeIS7_E
	.section	.text._ZSt11__addressofISt4pairIKiNSt7__cxx114listIS0_IiiESaIS4_EEEEEPT_RS8_,"axG",@progbits,_ZSt11__addressofISt4pairIKiNSt7__cxx114listIS0_IiiESaIS4_EEEEEPT_RS8_,comdat
	.weak	_ZSt11__addressofISt4pairIKiNSt7__cxx114listIS0_IiiESaIS4_EEEEEPT_RS8_
	.type	_ZSt11__addressofISt4pairIKiNSt7__cxx114listIS0_IiiESaIS4_EEEEEPT_RS8_, @function
_ZSt11__addressofISt4pairIKiNSt7__cxx114listIS0_IiiESaIS4_EEEEEPT_RS8_:
	pushl	%ebp
	movl	%esp, %ebp
	movl	8(%ebp), %eax
	popl	%ebp
	ret
	.size	_ZSt11__addressofISt4pairIKiNSt7__cxx114listIS0_IiiESaIS4_EEEEEPT_RS8_, .-_ZSt11__addressofISt4pairIKiNSt7__cxx114listIS0_IiiESaIS4_EEEEEPT_RS8_
	.section	.text._ZNSt7__cxx1110_List_baseISt4pairIiiESaIS2_EE10_List_implC2Ev,"axG",@progbits,_ZNSt7__cxx1110_List_baseISt4pairIiiESaIS2_EE10_List_implC5Ev,comdat
	.align 2
	.weak	_ZNSt7__cxx1110_List_baseISt4pairIiiESaIS2_EE10_List_implC2Ev
	.type	_ZNSt7__cxx1110_List_baseISt4pairIiiESaIS2_EE10_List_implC2Ev, @function
_ZNSt7__cxx1110_List_baseISt4pairIiiESaIS2_EE10_List_implC2Ev:
	pushl	%ebp
	movl	%esp, %ebp
	subl	$8, %esp
	subl	$12, %esp
	pushl	8(%ebp)
	call	_ZNSaISt10_List_nodeISt4pairIiiEEEC2Ev
	addl	$16, %esp
	movl	8(%ebp), %eax
	movl	$0, (%eax)
	movl	8(%ebp), %eax
	movl	$0, 4(%eax)
	movl	8(%ebp), %eax
	movl	$0, 8(%eax)
	nop
	leave
	ret
	.size	_ZNSt7__cxx1110_List_baseISt4pairIiiESaIS2_EE10_List_implC2Ev, .-_ZNSt7__cxx1110_List_baseISt4pairIiiESaIS2_EE10_List_implC2Ev
	.weak	_ZNSt7__cxx1110_List_baseISt4pairIiiESaIS2_EE10_List_implC1Ev
	.set	_ZNSt7__cxx1110_List_baseISt4pairIiiESaIS2_EE10_List_implC1Ev,_ZNSt7__cxx1110_List_baseISt4pairIiiESaIS2_EE10_List_implC2Ev
	.section	.text._ZNSt7__cxx1110_List_baseISt4pairIiiESaIS2_EE7_M_initEv,"axG",@progbits,_ZNSt7__cxx1110_List_baseISt4pairIiiESaIS2_EE7_M_initEv,comdat
	.align 2
	.weak	_ZNSt7__cxx1110_List_baseISt4pairIiiESaIS2_EE7_M_initEv
	.type	_ZNSt7__cxx1110_List_baseISt4pairIiiESaIS2_EE7_M_initEv, @function
_ZNSt7__cxx1110_List_baseISt4pairIiiESaIS2_EE7_M_initEv:
	pushl	%ebp
	movl	%esp, %ebp
	subl	$8, %esp
	movl	8(%ebp), %edx
	movl	8(%ebp), %eax
	movl	%edx, (%eax)
	movl	8(%ebp), %edx
	movl	8(%ebp), %eax
	movl	%edx, 4(%eax)
	subl	$8, %esp
	pushl	$0
	pushl	8(%ebp)
	call	_ZNSt7__cxx1110_List_baseISt4pairIiiESaIS2_EE11_M_set_sizeEj
	addl	$16, %esp
	nop
	leave
	ret
	.size	_ZNSt7__cxx1110_List_baseISt4pairIiiESaIS2_EE7_M_initEv, .-_ZNSt7__cxx1110_List_baseISt4pairIiiESaIS2_EE7_M_initEv
	.section	.text._ZN9__gnu_cxx13new_allocatorISt10_List_nodeISt4pairIiiEEED2Ev,"axG",@progbits,_ZN9__gnu_cxx13new_allocatorISt10_List_nodeISt4pairIiiEEED5Ev,comdat
	.align 2
	.weak	_ZN9__gnu_cxx13new_allocatorISt10_List_nodeISt4pairIiiEEED2Ev
	.type	_ZN9__gnu_cxx13new_allocatorISt10_List_nodeISt4pairIiiEEED2Ev, @function
_ZN9__gnu_cxx13new_allocatorISt10_List_nodeISt4pairIiiEEED2Ev:
	pushl	%ebp
	movl	%esp, %ebp
	nop
	popl	%ebp
	ret
	.size	_ZN9__gnu_cxx13new_allocatorISt10_List_nodeISt4pairIiiEEED2Ev, .-_ZN9__gnu_cxx13new_allocatorISt10_List_nodeISt4pairIiiEEED2Ev
	.weak	_ZN9__gnu_cxx13new_allocatorISt10_List_nodeISt4pairIiiEEED1Ev
	.set	_ZN9__gnu_cxx13new_allocatorISt10_List_nodeISt4pairIiiEEED1Ev,_ZN9__gnu_cxx13new_allocatorISt10_List_nodeISt4pairIiiEEED2Ev
	.section	.text._ZNKSt7__cxx1110_List_baseISt4pairIiiESaIS2_EE19_M_get_Tp_allocatorEv,"axG",@progbits,_ZNKSt7__cxx1110_List_baseISt4pairIiiESaIS2_EE19_M_get_Tp_allocatorEv,comdat
	.align 2
	.weak	_ZNKSt7__cxx1110_List_baseISt4pairIiiESaIS2_EE19_M_get_Tp_allocatorEv
	.type	_ZNKSt7__cxx1110_List_baseISt4pairIiiESaIS2_EE19_M_get_Tp_allocatorEv, @function
_ZNKSt7__cxx1110_List_baseISt4pairIiiESaIS2_EE19_M_get_Tp_allocatorEv:
	pushl	%ebp
	movl	%esp, %ebp
	subl	$8, %esp
	subl	$12, %esp
	pushl	12(%ebp)
	call	_ZNKSt7__cxx1110_List_baseISt4pairIiiESaIS2_EE21_M_get_Node_allocatorEv
	addl	$16, %esp
	subl	$8, %esp
	pushl	%eax
	pushl	8(%ebp)
	call	_ZNSaISt4pairIiiEEC1ISt10_List_nodeIS0_EEERKSaIT_E
	addl	$16, %esp
	movl	8(%ebp), %eax
	leave
	ret	$4
	.size	_ZNKSt7__cxx1110_List_baseISt4pairIiiESaIS2_EE19_M_get_Tp_allocatorEv, .-_ZNKSt7__cxx1110_List_baseISt4pairIiiESaIS2_EE19_M_get_Tp_allocatorEv
	.section	.text._ZNSaISt4pairIiiEED2Ev,"axG",@progbits,_ZNSaISt4pairIiiEED5Ev,comdat
	.align 2
	.weak	_ZNSaISt4pairIiiEED2Ev
	.type	_ZNSaISt4pairIiiEED2Ev, @function
_ZNSaISt4pairIiiEED2Ev:
	pushl	%ebp
	movl	%esp, %ebp
	subl	$8, %esp
	subl	$12, %esp
	pushl	8(%ebp)
	call	_ZN9__gnu_cxx13new_allocatorISt4pairIiiEED2Ev
	addl	$16, %esp
	nop
	leave
	ret
	.size	_ZNSaISt4pairIiiEED2Ev, .-_ZNSaISt4pairIiiEED2Ev
	.weak	_ZNSaISt4pairIiiEED1Ev
	.set	_ZNSaISt4pairIiiEED1Ev,_ZNSaISt4pairIiiEED2Ev
	.section	.text._ZSt11__addressofISt4pairIiiEEPT_RS2_,"axG",@progbits,_ZSt11__addressofISt4pairIiiEEPT_RS2_,comdat
	.weak	_ZSt11__addressofISt4pairIiiEEPT_RS2_
	.type	_ZSt11__addressofISt4pairIiiEEPT_RS2_, @function
_ZSt11__addressofISt4pairIiiEEPT_RS2_:
	pushl	%ebp
	movl	%esp, %ebp
	movl	8(%ebp), %eax
	popl	%ebp
	ret
	.size	_ZSt11__addressofISt4pairIiiEEPT_RS2_, .-_ZSt11__addressofISt4pairIiiEEPT_RS2_
	.section	.text._ZN9__gnu_cxx13new_allocatorISt4pairIiiEE7destroyEPS2_,"axG",@progbits,_ZN9__gnu_cxx13new_allocatorISt4pairIiiEE7destroyEPS2_,comdat
	.align 2
	.weak	_ZN9__gnu_cxx13new_allocatorISt4pairIiiEE7destroyEPS2_
	.type	_ZN9__gnu_cxx13new_allocatorISt4pairIiiEE7destroyEPS2_, @function
_ZN9__gnu_cxx13new_allocatorISt4pairIiiEE7destroyEPS2_:
	pushl	%ebp
	movl	%esp, %ebp
	nop
	popl	%ebp
	ret
	.size	_ZN9__gnu_cxx13new_allocatorISt4pairIiiEE7destroyEPS2_, .-_ZN9__gnu_cxx13new_allocatorISt4pairIiiEE7destroyEPS2_
	.section	.text._ZNSt7__cxx1110_List_baseISt4pairIiiESaIS2_EE11_M_put_nodeEPSt10_List_nodeIS2_E,"axG",@progbits,_ZNSt7__cxx1110_List_baseISt4pairIiiESaIS2_EE11_M_put_nodeEPSt10_List_nodeIS2_E,comdat
	.align 2
	.weak	_ZNSt7__cxx1110_List_baseISt4pairIiiESaIS2_EE11_M_put_nodeEPSt10_List_nodeIS2_E
	.type	_ZNSt7__cxx1110_List_baseISt4pairIiiESaIS2_EE11_M_put_nodeEPSt10_List_nodeIS2_E, @function
_ZNSt7__cxx1110_List_baseISt4pairIiiESaIS2_EE11_M_put_nodeEPSt10_List_nodeIS2_E:
	pushl	%ebp
	movl	%esp, %ebp
	subl	$8, %esp
	movl	8(%ebp), %eax
	subl	$4, %esp
	pushl	$1
	pushl	12(%ebp)
	pushl	%eax
	call	_ZN9__gnu_cxx13new_allocatorISt10_List_nodeISt4pairIiiEEE10deallocateEPS4_j
	addl	$16, %esp
	nop
	leave
	ret
	.size	_ZNSt7__cxx1110_List_baseISt4pairIiiESaIS2_EE11_M_put_nodeEPSt10_List_nodeIS2_E, .-_ZNSt7__cxx1110_List_baseISt4pairIiiESaIS2_EE11_M_put_nodeEPSt10_List_nodeIS2_E
	.section	.text._ZNKSt7__cxx1110_List_baseISt4pairIiiESaIS2_EE21_M_get_Node_allocatorEv,"axG",@progbits,_ZNKSt7__cxx1110_List_baseISt4pairIiiESaIS2_EE21_M_get_Node_allocatorEv,comdat
	.align 2
	.weak	_ZNKSt7__cxx1110_List_baseISt4pairIiiESaIS2_EE21_M_get_Node_allocatorEv
	.type	_ZNKSt7__cxx1110_List_baseISt4pairIiiESaIS2_EE21_M_get_Node_allocatorEv, @function
_ZNKSt7__cxx1110_List_baseISt4pairIiiESaIS2_EE21_M_get_Node_allocatorEv:
	pushl	%ebp
	movl	%esp, %ebp
	movl	8(%ebp), %eax
	popl	%ebp
	ret
	.size	_ZNKSt7__cxx1110_List_baseISt4pairIiiESaIS2_EE21_M_get_Node_allocatorEv, .-_ZNKSt7__cxx1110_List_baseISt4pairIiiESaIS2_EE21_M_get_Node_allocatorEv
	.section	.text._ZNSt7__cxx1110_List_baseISt4pairIiiESaIS2_EEC2ERKSaISt10_List_nodeIS2_EE,"axG",@progbits,_ZNSt7__cxx1110_List_baseISt4pairIiiESaIS2_EEC5ERKSaISt10_List_nodeIS2_EE,comdat
	.align 2
	.weak	_ZNSt7__cxx1110_List_baseISt4pairIiiESaIS2_EEC2ERKSaISt10_List_nodeIS2_EE
	.type	_ZNSt7__cxx1110_List_baseISt4pairIiiESaIS2_EEC2ERKSaISt10_List_nodeIS2_EE, @function
_ZNSt7__cxx1110_List_baseISt4pairIiiESaIS2_EEC2ERKSaISt10_List_nodeIS2_EE:
	pushl	%ebp
	movl	%esp, %ebp
	subl	$8, %esp
	movl	8(%ebp), %eax
	subl	$8, %esp
	pushl	12(%ebp)
	pushl	%eax
	call	_ZNSt7__cxx1110_List_baseISt4pairIiiESaIS2_EE10_List_implC1ERKSaISt10_List_nodeIS2_EE
	addl	$16, %esp
	subl	$12, %esp
	pushl	8(%ebp)
	call	_ZNSt7__cxx1110_List_baseISt4pairIiiESaIS2_EE7_M_initEv
	addl	$16, %esp
	nop
	leave
	ret
	.size	_ZNSt7__cxx1110_List_baseISt4pairIiiESaIS2_EEC2ERKSaISt10_List_nodeIS2_EE, .-_ZNSt7__cxx1110_List_baseISt4pairIiiESaIS2_EEC2ERKSaISt10_List_nodeIS2_EE
	.weak	_ZNSt7__cxx1110_List_baseISt4pairIiiESaIS2_EEC1ERKSaISt10_List_nodeIS2_EE
	.set	_ZNSt7__cxx1110_List_baseISt4pairIiiESaIS2_EEC1ERKSaISt10_List_nodeIS2_EE,_ZNSt7__cxx1110_List_baseISt4pairIiiESaIS2_EEC2ERKSaISt10_List_nodeIS2_EE
	.section	.text._ZNKSt7__cxx114listISt4pairIiiESaIS2_EE5beginEv,"axG",@progbits,_ZNKSt7__cxx114listISt4pairIiiESaIS2_EE5beginEv,comdat
	.align 2
	.weak	_ZNKSt7__cxx114listISt4pairIiiESaIS2_EE5beginEv
	.type	_ZNKSt7__cxx114listISt4pairIiiESaIS2_EE5beginEv, @function
_ZNKSt7__cxx114listISt4pairIiiESaIS2_EE5beginEv:
	pushl	%ebp
	movl	%esp, %ebp
	subl	$8, %esp
	movl	12(%ebp), %eax
	movl	(%eax), %eax
	subl	$8, %esp
	pushl	%eax
	pushl	8(%ebp)
	call	_ZNSt20_List_const_iteratorISt4pairIiiEEC1EPKNSt8__detail15_List_node_baseE
	addl	$16, %esp
	movl	8(%ebp), %eax
	leave
	ret	$4
	.size	_ZNKSt7__cxx114listISt4pairIiiESaIS2_EE5beginEv, .-_ZNKSt7__cxx114listISt4pairIiiESaIS2_EE5beginEv
	.section	.text._ZNKSt7__cxx114listISt4pairIiiESaIS2_EE3endEv,"axG",@progbits,_ZNKSt7__cxx114listISt4pairIiiESaIS2_EE3endEv,comdat
	.align 2
	.weak	_ZNKSt7__cxx114listISt4pairIiiESaIS2_EE3endEv
	.type	_ZNKSt7__cxx114listISt4pairIiiESaIS2_EE3endEv, @function
_ZNKSt7__cxx114listISt4pairIiiESaIS2_EE3endEv:
	pushl	%ebp
	movl	%esp, %ebp
	subl	$8, %esp
	movl	12(%ebp), %eax
	subl	$8, %esp
	pushl	%eax
	pushl	8(%ebp)
	call	_ZNSt20_List_const_iteratorISt4pairIiiEEC1EPKNSt8__detail15_List_node_baseE
	addl	$16, %esp
	movl	8(%ebp), %eax
	leave
	ret	$4
	.size	_ZNKSt7__cxx114listISt4pairIiiESaIS2_EE3endEv, .-_ZNKSt7__cxx114listISt4pairIiiESaIS2_EE3endEv
	.section	.text._ZNSt7__cxx114listISt4pairIiiESaIS2_EE22_M_initialize_dispatchISt20_List_const_iteratorIS2_EEEvT_S8_St12__false_type,"axG",@progbits,_ZNSt7__cxx114listISt4pairIiiESaIS2_EE22_M_initialize_dispatchISt20_List_const_iteratorIS2_EEEvT_S8_St12__false_type,comdat
	.align 2
	.weak	_ZNSt7__cxx114listISt4pairIiiESaIS2_EE22_M_initialize_dispatchISt20_List_const_iteratorIS2_EEEvT_S8_St12__false_type
	.type	_ZNSt7__cxx114listISt4pairIiiESaIS2_EE22_M_initialize_dispatchISt20_List_const_iteratorIS2_EEEvT_S8_St12__false_type, @function
_ZNSt7__cxx114listISt4pairIiiESaIS2_EE22_M_initialize_dispatchISt20_List_const_iteratorIS2_EEEvT_S8_St12__false_type:
	pushl	%ebp
	movl	%esp, %ebp
	subl	$8, %esp
.L183:
	subl	$8, %esp
	leal	16(%ebp), %eax
	pushl	%eax
	leal	12(%ebp), %eax
	pushl	%eax
	call	_ZNKSt20_List_const_iteratorISt4pairIiiEEneERKS2_
	addl	$16, %esp
	testb	%al, %al
	je	.L184
	subl	$12, %esp
	leal	12(%ebp), %eax
	pushl	%eax
	call	_ZNKSt20_List_const_iteratorISt4pairIiiEEdeEv
	addl	$16, %esp
	subl	$8, %esp
	pushl	%eax
	pushl	8(%ebp)
	call	_ZNSt7__cxx114listISt4pairIiiESaIS2_EE9push_backERKS2_
	addl	$16, %esp
	subl	$12, %esp
	leal	12(%ebp), %eax
	pushl	%eax
	call	_ZNSt20_List_const_iteratorISt4pairIiiEEppEv
	addl	$16, %esp
	jmp	.L183
.L184:
	nop
	leave
	ret
	.size	_ZNSt7__cxx114listISt4pairIiiESaIS2_EE22_M_initialize_dispatchISt20_List_const_iteratorIS2_EEEvT_S8_St12__false_type, .-_ZNSt7__cxx114listISt4pairIiiESaIS2_EE22_M_initialize_dispatchISt20_List_const_iteratorIS2_EEEvT_S8_St12__false_type
	.section	.text._ZNSt8_Rb_treeIiSt4pairIKiNSt7__cxx114listIS0_IiiESaIS4_EEEESt10_Select1stIS7_ESt4lessIiESaIS7_EE11_Alloc_nodeC2ERSD_,"axG",@progbits,_ZNSt8_Rb_treeIiSt4pairIKiNSt7__cxx114listIS0_IiiESaIS4_EEEESt10_Select1stIS7_ESt4lessIiESaIS7_EE11_Alloc_nodeC5ERSD_,comdat
	.align 2
	.weak	_ZNSt8_Rb_treeIiSt4pairIKiNSt7__cxx114listIS0_IiiESaIS4_EEEESt10_Select1stIS7_ESt4lessIiESaIS7_EE11_Alloc_nodeC2ERSD_
	.type	_ZNSt8_Rb_treeIiSt4pairIKiNSt7__cxx114listIS0_IiiESaIS4_EEEESt10_Select1stIS7_ESt4lessIiESaIS7_EE11_Alloc_nodeC2ERSD_, @function
_ZNSt8_Rb_treeIiSt4pairIKiNSt7__cxx114listIS0_IiiESaIS4_EEEESt10_Select1stIS7_ESt4lessIiESaIS7_EE11_Alloc_nodeC2ERSD_:
	pushl	%ebp
	movl	%esp, %ebp
	movl	8(%ebp), %eax
	movl	12(%ebp), %edx
	movl	%edx, (%eax)
	nop
	popl	%ebp
	ret
	.size	_ZNSt8_Rb_treeIiSt4pairIKiNSt7__cxx114listIS0_IiiESaIS4_EEEESt10_Select1stIS7_ESt4lessIiESaIS7_EE11_Alloc_nodeC2ERSD_, .-_ZNSt8_Rb_treeIiSt4pairIKiNSt7__cxx114listIS0_IiiESaIS4_EEEESt10_Select1stIS7_ESt4lessIiESaIS7_EE11_Alloc_nodeC2ERSD_
	.weak	_ZNSt8_Rb_treeIiSt4pairIKiNSt7__cxx114listIS0_IiiESaIS4_EEEESt10_Select1stIS7_ESt4lessIiESaIS7_EE11_Alloc_nodeC1ERSD_
	.set	_ZNSt8_Rb_treeIiSt4pairIKiNSt7__cxx114listIS0_IiiESaIS4_EEEESt10_Select1stIS7_ESt4lessIiESaIS7_EE11_Alloc_nodeC1ERSD_,_ZNSt8_Rb_treeIiSt4pairIKiNSt7__cxx114listIS0_IiiESaIS4_EEEESt10_Select1stIS7_ESt4lessIiESaIS7_EE11_Alloc_nodeC2ERSD_
	.section	.text._ZNSt8_Rb_treeIiSt4pairIKiNSt7__cxx114listIS0_IiiESaIS4_EEEESt10_Select1stIS7_ESt4lessIiESaIS7_EE17_M_insert_unique_INSD_11_Alloc_nodeEEESt17_Rb_tree_iteratorIS7_ESt23_Rb_tree_const_iteratorIS7_ERKS7_RT_,"axG",@progbits,_ZNSt8_Rb_treeIiSt4pairIKiNSt7__cxx114listIS0_IiiESaIS4_EEEESt10_Select1stIS7_ESt4lessIiESaIS7_EE17_M_insert_unique_INSD_11_Alloc_nodeEEESt17_Rb_tree_iteratorIS7_ESt23_Rb_tree_const_iteratorIS7_ERKS7_RT_,comdat
	.align 2
	.weak	_ZNSt8_Rb_treeIiSt4pairIKiNSt7__cxx114listIS0_IiiESaIS4_EEEESt10_Select1stIS7_ESt4lessIiESaIS7_EE17_M_insert_unique_INSD_11_Alloc_nodeEEESt17_Rb_tree_iteratorIS7_ESt23_Rb_tree_const_iteratorIS7_ERKS7_RT_
	.type	_ZNSt8_Rb_treeIiSt4pairIKiNSt7__cxx114listIS0_IiiESaIS4_EEEESt10_Select1stIS7_ESt4lessIiESaIS7_EE17_M_insert_unique_INSD_11_Alloc_nodeEEESt17_Rb_tree_iteratorIS7_ESt23_Rb_tree_const_iteratorIS7_ERKS7_RT_, @function
_ZNSt8_Rb_treeIiSt4pairIKiNSt7__cxx114listIS0_IiiESaIS4_EEEESt10_Select1stIS7_ESt4lessIiESaIS7_EE17_M_insert_unique_INSD_11_Alloc_nodeEEESt17_Rb_tree_iteratorIS7_ESt23_Rb_tree_const_iteratorIS7_ERKS7_RT_:
	pushl	%ebp
	movl	%esp, %ebp
	subl	$40, %esp
	movl	8(%ebp), %eax
	movl	%eax, -28(%ebp)
	movl	12(%ebp), %eax
	movl	%eax, -32(%ebp)
	movl	20(%ebp), %eax
	movl	%eax, -36(%ebp)
	movl	24(%ebp), %eax
	movl	%eax, -40(%ebp)
	movl	%gs:20, %eax
	movl	%eax, -12(%ebp)
	xorl	%eax, %eax
	subl	$8, %esp
	pushl	-36(%ebp)
	leal	-21(%ebp), %eax
	pushl	%eax
	call	_ZNKSt10_Select1stISt4pairIKiNSt7__cxx114listIS0_IiiESaIS4_EEEEEclERKS7_
	addl	$16, %esp
	movl	%eax, %edx
	leal	-20(%ebp), %eax
	pushl	%edx
	pushl	16(%ebp)
	pushl	-32(%ebp)
	pushl	%eax
	call	_ZNSt8_Rb_treeIiSt4pairIKiNSt7__cxx114listIS0_IiiESaIS4_EEEESt10_Select1stIS7_ESt4lessIiESaIS7_EE29_M_get_insert_hint_unique_posESt23_Rb_tree_const_iteratorIS7_ERS1_
	addl	$12, %esp
	movl	-16(%ebp), %eax
	testl	%eax, %eax
	je	.L187
	movl	-16(%ebp), %ecx
	movl	-20(%ebp), %edx
	movl	-28(%ebp), %eax
	subl	$8, %esp
	pushl	-40(%ebp)
	pushl	-36(%ebp)
	pushl	%ecx
	pushl	%edx
	pushl	-32(%ebp)
	pushl	%eax
	call	_ZNSt8_Rb_treeIiSt4pairIKiNSt7__cxx114listIS0_IiiESaIS4_EEEESt10_Select1stIS7_ESt4lessIiESaIS7_EE10_M_insert_INSD_11_Alloc_nodeEEESt17_Rb_tree_iteratorIS7_EPSt18_Rb_tree_node_baseSJ_RKS7_RT_
	addl	$28, %esp
	jmp	.L186
.L187:
	movl	-20(%ebp), %eax
	subl	$8, %esp
	pushl	%eax
	pushl	-28(%ebp)
	call	_ZNSt17_Rb_tree_iteratorISt4pairIKiNSt7__cxx114listIS0_IiiESaIS4_EEEEEC1EPSt13_Rb_tree_nodeIS7_E
	addl	$16, %esp
.L186:
	movl	-28(%ebp), %eax
	movl	-12(%ebp), %ecx
	xorl	%gs:20, %ecx
	je	.L190
	call	__stack_chk_fail
.L190:
	leave
	ret	$4
	.size	_ZNSt8_Rb_treeIiSt4pairIKiNSt7__cxx114listIS0_IiiESaIS4_EEEESt10_Select1stIS7_ESt4lessIiESaIS7_EE17_M_insert_unique_INSD_11_Alloc_nodeEEESt17_Rb_tree_iteratorIS7_ESt23_Rb_tree_const_iteratorIS7_ERKS7_RT_, .-_ZNSt8_Rb_treeIiSt4pairIKiNSt7__cxx114listIS0_IiiESaIS4_EEEESt10_Select1stIS7_ESt4lessIiESaIS7_EE17_M_insert_unique_INSD_11_Alloc_nodeEEESt17_Rb_tree_iteratorIS7_ESt23_Rb_tree_const_iteratorIS7_ERKS7_RT_
	.section	.text._ZNSt7__cxx1110_List_baseISt4pairIiiESaIS2_EE11_M_get_nodeEv,"axG",@progbits,_ZNSt7__cxx1110_List_baseISt4pairIiiESaIS2_EE11_M_get_nodeEv,comdat
	.align 2
	.weak	_ZNSt7__cxx1110_List_baseISt4pairIiiESaIS2_EE11_M_get_nodeEv
	.type	_ZNSt7__cxx1110_List_baseISt4pairIiiESaIS2_EE11_M_get_nodeEv, @function
_ZNSt7__cxx1110_List_baseISt4pairIiiESaIS2_EE11_M_get_nodeEv:
	pushl	%ebp
	movl	%esp, %ebp
	subl	$8, %esp
	movl	8(%ebp), %eax
	subl	$4, %esp
	pushl	$0
	pushl	$1
	pushl	%eax
	call	_ZN9__gnu_cxx13new_allocatorISt10_List_nodeISt4pairIiiEEE8allocateEjPKv
	addl	$16, %esp
	leave
	ret
	.size	_ZNSt7__cxx1110_List_baseISt4pairIiiESaIS2_EE11_M_get_nodeEv, .-_ZNSt7__cxx1110_List_baseISt4pairIiiESaIS2_EE11_M_get_nodeEv
	.section	.text._ZN9__gnu_cxx13new_allocatorISt4pairIiiEE9constructEPS2_RKS2_,"axG",@progbits,_ZN9__gnu_cxx13new_allocatorISt4pairIiiEE9constructEPS2_RKS2_,comdat
	.align 2
	.weak	_ZN9__gnu_cxx13new_allocatorISt4pairIiiEE9constructEPS2_RKS2_
	.type	_ZN9__gnu_cxx13new_allocatorISt4pairIiiEE9constructEPS2_RKS2_, @function
_ZN9__gnu_cxx13new_allocatorISt4pairIiiEE9constructEPS2_RKS2_:
	pushl	%ebp
	movl	%esp, %ebp
	subl	$8, %esp
	movl	12(%ebp), %eax
	subl	$8, %esp
	pushl	%eax
	pushl	$8
	call	_ZnwjPv
	addl	$16, %esp
	movl	%eax, %ecx
	testl	%ecx, %ecx
	je	.L196
	movl	16(%ebp), %eax
	movl	4(%eax), %edx
	movl	(%eax), %eax
	movl	%eax, (%ecx)
	movl	%edx, 4(%ecx)
.L196:
	nop
	leave
	ret
	.size	_ZN9__gnu_cxx13new_allocatorISt4pairIiiEE9constructEPS2_RKS2_, .-_ZN9__gnu_cxx13new_allocatorISt4pairIiiEE9constructEPS2_RKS2_
	.section	.text._ZN9__gnu_cxx13new_allocatorISt13_Rb_tree_nodeISt4pairIKiNSt7__cxx114listIS2_IiiESaIS6_EEEEEEC2Ev,"axG",@progbits,_ZN9__gnu_cxx13new_allocatorISt13_Rb_tree_nodeISt4pairIKiNSt7__cxx114listIS2_IiiESaIS6_EEEEEEC5Ev,comdat
	.align 2
	.weak	_ZN9__gnu_cxx13new_allocatorISt13_Rb_tree_nodeISt4pairIKiNSt7__cxx114listIS2_IiiESaIS6_EEEEEEC2Ev
	.type	_ZN9__gnu_cxx13new_allocatorISt13_Rb_tree_nodeISt4pairIKiNSt7__cxx114listIS2_IiiESaIS6_EEEEEEC2Ev, @function
_ZN9__gnu_cxx13new_allocatorISt13_Rb_tree_nodeISt4pairIKiNSt7__cxx114listIS2_IiiESaIS6_EEEEEEC2Ev:
	pushl	%ebp
	movl	%esp, %ebp
	nop
	popl	%ebp
	ret
	.size	_ZN9__gnu_cxx13new_allocatorISt13_Rb_tree_nodeISt4pairIKiNSt7__cxx114listIS2_IiiESaIS6_EEEEEEC2Ev, .-_ZN9__gnu_cxx13new_allocatorISt13_Rb_tree_nodeISt4pairIKiNSt7__cxx114listIS2_IiiESaIS6_EEEEEEC2Ev
	.weak	_ZN9__gnu_cxx13new_allocatorISt13_Rb_tree_nodeISt4pairIKiNSt7__cxx114listIS2_IiiESaIS6_EEEEEEC1Ev
	.set	_ZN9__gnu_cxx13new_allocatorISt13_Rb_tree_nodeISt4pairIKiNSt7__cxx114listIS2_IiiESaIS6_EEEEEEC1Ev,_ZN9__gnu_cxx13new_allocatorISt13_Rb_tree_nodeISt4pairIKiNSt7__cxx114listIS2_IiiESaIS6_EEEEEEC2Ev
	.section	.text._ZNSt8_Rb_treeIiSt4pairIKiNSt7__cxx114listIS0_IiiESaIS4_EEEESt10_Select1stIS7_ESt4lessIiESaIS7_EE15_M_destroy_nodeEPSt13_Rb_tree_nodeIS7_E,"axG",@progbits,_ZNSt8_Rb_treeIiSt4pairIKiNSt7__cxx114listIS0_IiiESaIS4_EEEESt10_Select1stIS7_ESt4lessIiESaIS7_EE15_M_destroy_nodeEPSt13_Rb_tree_nodeIS7_E,comdat
	.align 2
	.weak	_ZNSt8_Rb_treeIiSt4pairIKiNSt7__cxx114listIS0_IiiESaIS4_EEEESt10_Select1stIS7_ESt4lessIiESaIS7_EE15_M_destroy_nodeEPSt13_Rb_tree_nodeIS7_E
	.type	_ZNSt8_Rb_treeIiSt4pairIKiNSt7__cxx114listIS0_IiiESaIS4_EEEESt10_Select1stIS7_ESt4lessIiESaIS7_EE15_M_destroy_nodeEPSt13_Rb_tree_nodeIS7_E, @function
_ZNSt8_Rb_treeIiSt4pairIKiNSt7__cxx114listIS0_IiiESaIS4_EEEESt10_Select1stIS7_ESt4lessIiESaIS7_EE15_M_destroy_nodeEPSt13_Rb_tree_nodeIS7_E:
	pushl	%ebp
	movl	%esp, %ebp
	pushl	%ebx
	subl	$36, %esp
	movl	8(%ebp), %eax
	movl	%eax, -28(%ebp)
	movl	12(%ebp), %eax
	movl	%eax, -32(%ebp)
	movl	%gs:20, %eax
	movl	%eax, -12(%ebp)
	xorl	%eax, %eax
	subl	$12, %esp
	pushl	-32(%ebp)
	call	_ZNSt13_Rb_tree_nodeISt4pairIKiNSt7__cxx114listIS0_IiiESaIS4_EEEEE9_M_valptrEv
	addl	$16, %esp
	movl	%eax, %ebx
	leal	-13(%ebp), %eax
	subl	$8, %esp
	pushl	-28(%ebp)
	pushl	%eax
	call	_ZNKSt8_Rb_treeIiSt4pairIKiNSt7__cxx114listIS0_IiiESaIS4_EEEESt10_Select1stIS7_ESt4lessIiESaIS7_EE13get_allocatorEv
	addl	$12, %esp
	subl	$8, %esp
	pushl	%ebx
	leal	-13(%ebp), %eax
	pushl	%eax
	call	_ZN9__gnu_cxx13new_allocatorISt4pairIKiNSt7__cxx114listIS1_IiiESaIS5_EEEEE7destroyEPS8_
	addl	$16, %esp
	subl	$12, %esp
	leal	-13(%ebp), %eax
	pushl	%eax
	call	_ZNSaISt4pairIKiNSt7__cxx114listIS_IiiESaIS3_EEEEED1Ev
	addl	$16, %esp
	nop
	movl	-12(%ebp), %eax
	xorl	%gs:20, %eax
	je	.L199
	call	__stack_chk_fail
.L199:
	movl	-4(%ebp), %ebx
	leave
	ret
	.size	_ZNSt8_Rb_treeIiSt4pairIKiNSt7__cxx114listIS0_IiiESaIS4_EEEESt10_Select1stIS7_ESt4lessIiESaIS7_EE15_M_destroy_nodeEPSt13_Rb_tree_nodeIS7_E, .-_ZNSt8_Rb_treeIiSt4pairIKiNSt7__cxx114listIS0_IiiESaIS4_EEEESt10_Select1stIS7_ESt4lessIiESaIS7_EE15_M_destroy_nodeEPSt13_Rb_tree_nodeIS7_E
	.section	.text._ZNSt8_Rb_treeIiSt4pairIKiNSt7__cxx114listIS0_IiiESaIS4_EEEESt10_Select1stIS7_ESt4lessIiESaIS7_EE11_M_put_nodeEPSt13_Rb_tree_nodeIS7_E,"axG",@progbits,_ZNSt8_Rb_treeIiSt4pairIKiNSt7__cxx114listIS0_IiiESaIS4_EEEESt10_Select1stIS7_ESt4lessIiESaIS7_EE11_M_put_nodeEPSt13_Rb_tree_nodeIS7_E,comdat
	.align 2
	.weak	_ZNSt8_Rb_treeIiSt4pairIKiNSt7__cxx114listIS0_IiiESaIS4_EEEESt10_Select1stIS7_ESt4lessIiESaIS7_EE11_M_put_nodeEPSt13_Rb_tree_nodeIS7_E
	.type	_ZNSt8_Rb_treeIiSt4pairIKiNSt7__cxx114listIS0_IiiESaIS4_EEEESt10_Select1stIS7_ESt4lessIiESaIS7_EE11_M_put_nodeEPSt13_Rb_tree_nodeIS7_E, @function
_ZNSt8_Rb_treeIiSt4pairIKiNSt7__cxx114listIS0_IiiESaIS4_EEEESt10_Select1stIS7_ESt4lessIiESaIS7_EE11_M_put_nodeEPSt13_Rb_tree_nodeIS7_E:
	pushl	%ebp
	movl	%esp, %ebp
	subl	$8, %esp
	subl	$12, %esp
	pushl	8(%ebp)
	call	_ZNSt8_Rb_treeIiSt4pairIKiNSt7__cxx114listIS0_IiiESaIS4_EEEESt10_Select1stIS7_ESt4lessIiESaIS7_EE21_M_get_Node_allocatorEv
	addl	$16, %esp
	subl	$4, %esp
	pushl	$1
	pushl	12(%ebp)
	pushl	%eax
	call	_ZN9__gnu_cxx14__alloc_traitsISaISt13_Rb_tree_nodeISt4pairIKiNSt7__cxx114listIS2_IiiESaIS6_EEEEEEE10deallocateERSB_PSA_j
	addl	$16, %esp
	nop
	leave
	ret
	.size	_ZNSt8_Rb_treeIiSt4pairIKiNSt7__cxx114listIS0_IiiESaIS4_EEEESt10_Select1stIS7_ESt4lessIiESaIS7_EE11_M_put_nodeEPSt13_Rb_tree_nodeIS7_E, .-_ZNSt8_Rb_treeIiSt4pairIKiNSt7__cxx114listIS0_IiiESaIS4_EEEESt10_Select1stIS7_ESt4lessIiESaIS7_EE11_M_put_nodeEPSt13_Rb_tree_nodeIS7_E
	.section	.text._ZNSt8_Rb_treeIiSt4pairIKiNSt7__cxx114listIS0_IiiESaIS4_EEEESt10_Select1stIS7_ESt4lessIiESaIS7_EE6_S_keyEPKSt13_Rb_tree_nodeIS7_E,"axG",@progbits,_ZNSt8_Rb_treeIiSt4pairIKiNSt7__cxx114listIS0_IiiESaIS4_EEEESt10_Select1stIS7_ESt4lessIiESaIS7_EE6_S_keyEPKSt13_Rb_tree_nodeIS7_E,comdat
	.weak	_ZNSt8_Rb_treeIiSt4pairIKiNSt7__cxx114listIS0_IiiESaIS4_EEEESt10_Select1stIS7_ESt4lessIiESaIS7_EE6_S_keyEPKSt13_Rb_tree_nodeIS7_E
	.type	_ZNSt8_Rb_treeIiSt4pairIKiNSt7__cxx114listIS0_IiiESaIS4_EEEESt10_Select1stIS7_ESt4lessIiESaIS7_EE6_S_keyEPKSt13_Rb_tree_nodeIS7_E, @function
_ZNSt8_Rb_treeIiSt4pairIKiNSt7__cxx114listIS0_IiiESaIS4_EEEESt10_Select1stIS7_ESt4lessIiESaIS7_EE6_S_keyEPKSt13_Rb_tree_nodeIS7_E:
	pushl	%ebp
	movl	%esp, %ebp
	subl	$40, %esp
	movl	8(%ebp), %eax
	movl	%eax, -28(%ebp)
	movl	%gs:20, %eax
	movl	%eax, -12(%ebp)
	xorl	%eax, %eax
	subl	$12, %esp
	pushl	-28(%ebp)
	call	_ZNSt8_Rb_treeIiSt4pairIKiNSt7__cxx114listIS0_IiiESaIS4_EEEESt10_Select1stIS7_ESt4lessIiESaIS7_EE8_S_valueEPKSt13_Rb_tree_nodeIS7_E
	addl	$16, %esp
	subl	$8, %esp
	pushl	%eax
	leal	-13(%ebp), %eax
	pushl	%eax
	call	_ZNKSt10_Select1stISt4pairIKiNSt7__cxx114listIS0_IiiESaIS4_EEEEEclERKS7_
	addl	$16, %esp
	movl	-12(%ebp), %edx
	xorl	%gs:20, %edx
	je	.L203
	call	__stack_chk_fail
.L203:
	leave
	ret
	.size	_ZNSt8_Rb_treeIiSt4pairIKiNSt7__cxx114listIS0_IiiESaIS4_EEEESt10_Select1stIS7_ESt4lessIiESaIS7_EE6_S_keyEPKSt13_Rb_tree_nodeIS7_E, .-_ZNSt8_Rb_treeIiSt4pairIKiNSt7__cxx114listIS0_IiiESaIS4_EEEESt10_Select1stIS7_ESt4lessIiESaIS7_EE6_S_keyEPKSt13_Rb_tree_nodeIS7_E
	.section	.text._ZNSaISt10_List_nodeISt4pairIiiEEEC2Ev,"axG",@progbits,_ZNSaISt10_List_nodeISt4pairIiiEEEC5Ev,comdat
	.align 2
	.weak	_ZNSaISt10_List_nodeISt4pairIiiEEEC2Ev
	.type	_ZNSaISt10_List_nodeISt4pairIiiEEEC2Ev, @function
_ZNSaISt10_List_nodeISt4pairIiiEEEC2Ev:
	pushl	%ebp
	movl	%esp, %ebp
	subl	$8, %esp
	subl	$12, %esp
	pushl	8(%ebp)
	call	_ZN9__gnu_cxx13new_allocatorISt10_List_nodeISt4pairIiiEEEC2Ev
	addl	$16, %esp
	nop
	leave
	ret
	.size	_ZNSaISt10_List_nodeISt4pairIiiEEEC2Ev, .-_ZNSaISt10_List_nodeISt4pairIiiEEEC2Ev
	.weak	_ZNSaISt10_List_nodeISt4pairIiiEEEC1Ev
	.set	_ZNSaISt10_List_nodeISt4pairIiiEEEC1Ev,_ZNSaISt10_List_nodeISt4pairIiiEEEC2Ev
	.section	.text._ZNSt7__cxx1110_List_baseISt4pairIiiESaIS2_EE11_M_set_sizeEj,"axG",@progbits,_ZNSt7__cxx1110_List_baseISt4pairIiiESaIS2_EE11_M_set_sizeEj,comdat
	.align 2
	.weak	_ZNSt7__cxx1110_List_baseISt4pairIiiESaIS2_EE11_M_set_sizeEj
	.type	_ZNSt7__cxx1110_List_baseISt4pairIiiESaIS2_EE11_M_set_sizeEj, @function
_ZNSt7__cxx1110_List_baseISt4pairIiiESaIS2_EE11_M_set_sizeEj:
	pushl	%ebp
	movl	%esp, %ebp
	movl	8(%ebp), %eax
	movl	12(%ebp), %edx
	movl	%edx, 8(%eax)
	nop
	popl	%ebp
	ret
	.size	_ZNSt7__cxx1110_List_baseISt4pairIiiESaIS2_EE11_M_set_sizeEj, .-_ZNSt7__cxx1110_List_baseISt4pairIiiESaIS2_EE11_M_set_sizeEj
	.section	.text._ZNSaISt4pairIiiEEC2ISt10_List_nodeIS0_EEERKSaIT_E,"axG",@progbits,_ZNSaISt4pairIiiEEC5ISt10_List_nodeIS0_EEERKSaIT_E,comdat
	.align 2
	.weak	_ZNSaISt4pairIiiEEC2ISt10_List_nodeIS0_EEERKSaIT_E
	.type	_ZNSaISt4pairIiiEEC2ISt10_List_nodeIS0_EEERKSaIT_E, @function
_ZNSaISt4pairIiiEEC2ISt10_List_nodeIS0_EEERKSaIT_E:
	pushl	%ebp
	movl	%esp, %ebp
	subl	$8, %esp
	subl	$12, %esp
	pushl	8(%ebp)
	call	_ZN9__gnu_cxx13new_allocatorISt4pairIiiEEC2Ev
	addl	$16, %esp
	nop
	leave
	ret
	.size	_ZNSaISt4pairIiiEEC2ISt10_List_nodeIS0_EEERKSaIT_E, .-_ZNSaISt4pairIiiEEC2ISt10_List_nodeIS0_EEERKSaIT_E
	.weak	_ZNSaISt4pairIiiEEC1ISt10_List_nodeIS0_EEERKSaIT_E
	.set	_ZNSaISt4pairIiiEEC1ISt10_List_nodeIS0_EEERKSaIT_E,_ZNSaISt4pairIiiEEC2ISt10_List_nodeIS0_EEERKSaIT_E
	.section	.text._ZN9__gnu_cxx13new_allocatorISt4pairIiiEED2Ev,"axG",@progbits,_ZN9__gnu_cxx13new_allocatorISt4pairIiiEED5Ev,comdat
	.align 2
	.weak	_ZN9__gnu_cxx13new_allocatorISt4pairIiiEED2Ev
	.type	_ZN9__gnu_cxx13new_allocatorISt4pairIiiEED2Ev, @function
_ZN9__gnu_cxx13new_allocatorISt4pairIiiEED2Ev:
	pushl	%ebp
	movl	%esp, %ebp
	nop
	popl	%ebp
	ret
	.size	_ZN9__gnu_cxx13new_allocatorISt4pairIiiEED2Ev, .-_ZN9__gnu_cxx13new_allocatorISt4pairIiiEED2Ev
	.weak	_ZN9__gnu_cxx13new_allocatorISt4pairIiiEED1Ev
	.set	_ZN9__gnu_cxx13new_allocatorISt4pairIiiEED1Ev,_ZN9__gnu_cxx13new_allocatorISt4pairIiiEED2Ev
	.section	.text._ZN9__gnu_cxx13new_allocatorISt10_List_nodeISt4pairIiiEEE10deallocateEPS4_j,"axG",@progbits,_ZN9__gnu_cxx13new_allocatorISt10_List_nodeISt4pairIiiEEE10deallocateEPS4_j,comdat
	.align 2
	.weak	_ZN9__gnu_cxx13new_allocatorISt10_List_nodeISt4pairIiiEEE10deallocateEPS4_j
	.type	_ZN9__gnu_cxx13new_allocatorISt10_List_nodeISt4pairIiiEEE10deallocateEPS4_j, @function
_ZN9__gnu_cxx13new_allocatorISt10_List_nodeISt4pairIiiEEE10deallocateEPS4_j:
	pushl	%ebp
	movl	%esp, %ebp
	subl	$8, %esp
	subl	$12, %esp
	pushl	12(%ebp)
	call	_ZdlPv
	addl	$16, %esp
	nop
	leave
	ret
	.size	_ZN9__gnu_cxx13new_allocatorISt10_List_nodeISt4pairIiiEEE10deallocateEPS4_j, .-_ZN9__gnu_cxx13new_allocatorISt10_List_nodeISt4pairIiiEEE10deallocateEPS4_j
	.section	.text._ZNSt7__cxx1110_List_baseISt4pairIiiESaIS2_EE10_List_implC2ERKSaISt10_List_nodeIS2_EE,"axG",@progbits,_ZNSt7__cxx1110_List_baseISt4pairIiiESaIS2_EE10_List_implC5ERKSaISt10_List_nodeIS2_EE,comdat
	.align 2
	.weak	_ZNSt7__cxx1110_List_baseISt4pairIiiESaIS2_EE10_List_implC2ERKSaISt10_List_nodeIS2_EE
	.type	_ZNSt7__cxx1110_List_baseISt4pairIiiESaIS2_EE10_List_implC2ERKSaISt10_List_nodeIS2_EE, @function
_ZNSt7__cxx1110_List_baseISt4pairIiiESaIS2_EE10_List_implC2ERKSaISt10_List_nodeIS2_EE:
	pushl	%ebp
	movl	%esp, %ebp
	subl	$8, %esp
	subl	$8, %esp
	pushl	12(%ebp)
	pushl	8(%ebp)
	call	_ZNSaISt10_List_nodeISt4pairIiiEEEC2ERKS3_
	addl	$16, %esp
	movl	8(%ebp), %eax
	movl	$0, (%eax)
	movl	8(%ebp), %eax
	movl	$0, 4(%eax)
	movl	8(%ebp), %eax
	movl	$0, 8(%eax)
	nop
	leave
	ret
	.size	_ZNSt7__cxx1110_List_baseISt4pairIiiESaIS2_EE10_List_implC2ERKSaISt10_List_nodeIS2_EE, .-_ZNSt7__cxx1110_List_baseISt4pairIiiESaIS2_EE10_List_implC2ERKSaISt10_List_nodeIS2_EE
	.weak	_ZNSt7__cxx1110_List_baseISt4pairIiiESaIS2_EE10_List_implC1ERKSaISt10_List_nodeIS2_EE
	.set	_ZNSt7__cxx1110_List_baseISt4pairIiiESaIS2_EE10_List_implC1ERKSaISt10_List_nodeIS2_EE,_ZNSt7__cxx1110_List_baseISt4pairIiiESaIS2_EE10_List_implC2ERKSaISt10_List_nodeIS2_EE
	.section	.text._ZNSt20_List_const_iteratorISt4pairIiiEEC2EPKNSt8__detail15_List_node_baseE,"axG",@progbits,_ZNSt20_List_const_iteratorISt4pairIiiEEC5EPKNSt8__detail15_List_node_baseE,comdat
	.align 2
	.weak	_ZNSt20_List_const_iteratorISt4pairIiiEEC2EPKNSt8__detail15_List_node_baseE
	.type	_ZNSt20_List_const_iteratorISt4pairIiiEEC2EPKNSt8__detail15_List_node_baseE, @function
_ZNSt20_List_const_iteratorISt4pairIiiEEC2EPKNSt8__detail15_List_node_baseE:
	pushl	%ebp
	movl	%esp, %ebp
	movl	8(%ebp), %eax
	movl	12(%ebp), %edx
	movl	%edx, (%eax)
	nop
	popl	%ebp
	ret
	.size	_ZNSt20_List_const_iteratorISt4pairIiiEEC2EPKNSt8__detail15_List_node_baseE, .-_ZNSt20_List_const_iteratorISt4pairIiiEEC2EPKNSt8__detail15_List_node_baseE
	.weak	_ZNSt20_List_const_iteratorISt4pairIiiEEC1EPKNSt8__detail15_List_node_baseE
	.set	_ZNSt20_List_const_iteratorISt4pairIiiEEC1EPKNSt8__detail15_List_node_baseE,_ZNSt20_List_const_iteratorISt4pairIiiEEC2EPKNSt8__detail15_List_node_baseE
	.section	.text._ZNKSt20_List_const_iteratorISt4pairIiiEEneERKS2_,"axG",@progbits,_ZNKSt20_List_const_iteratorISt4pairIiiEEneERKS2_,comdat
	.align 2
	.weak	_ZNKSt20_List_const_iteratorISt4pairIiiEEneERKS2_
	.type	_ZNKSt20_List_const_iteratorISt4pairIiiEEneERKS2_, @function
_ZNKSt20_List_const_iteratorISt4pairIiiEEneERKS2_:
	pushl	%ebp
	movl	%esp, %ebp
	movl	8(%ebp), %eax
	movl	(%eax), %edx
	movl	12(%ebp), %eax
	movl	(%eax), %eax
	cmpl	%eax, %edx
	setne	%al
	popl	%ebp
	ret
	.size	_ZNKSt20_List_const_iteratorISt4pairIiiEEneERKS2_, .-_ZNKSt20_List_const_iteratorISt4pairIiiEEneERKS2_
	.section	.text._ZNSt20_List_const_iteratorISt4pairIiiEEppEv,"axG",@progbits,_ZNSt20_List_const_iteratorISt4pairIiiEEppEv,comdat
	.align 2
	.weak	_ZNSt20_List_const_iteratorISt4pairIiiEEppEv
	.type	_ZNSt20_List_const_iteratorISt4pairIiiEEppEv, @function
_ZNSt20_List_const_iteratorISt4pairIiiEEppEv:
	pushl	%ebp
	movl	%esp, %ebp
	movl	8(%ebp), %eax
	movl	(%eax), %eax
	movl	(%eax), %edx
	movl	8(%ebp), %eax
	movl	%edx, (%eax)
	movl	8(%ebp), %eax
	popl	%ebp
	ret
	.size	_ZNSt20_List_const_iteratorISt4pairIiiEEppEv, .-_ZNSt20_List_const_iteratorISt4pairIiiEEppEv
	.section	.text._ZNKSt20_List_const_iteratorISt4pairIiiEEdeEv,"axG",@progbits,_ZNKSt20_List_const_iteratorISt4pairIiiEEdeEv,comdat
	.align 2
	.weak	_ZNKSt20_List_const_iteratorISt4pairIiiEEdeEv
	.type	_ZNKSt20_List_const_iteratorISt4pairIiiEEdeEv, @function
_ZNKSt20_List_const_iteratorISt4pairIiiEEdeEv:
	pushl	%ebp
	movl	%esp, %ebp
	movl	8(%ebp), %eax
	movl	(%eax), %eax
	addl	$8, %eax
	popl	%ebp
	ret
	.size	_ZNKSt20_List_const_iteratorISt4pairIiiEEdeEv, .-_ZNKSt20_List_const_iteratorISt4pairIiiEEdeEv
	.section	.text._ZNSt8_Rb_treeIiSt4pairIKiNSt7__cxx114listIS0_IiiESaIS4_EEEESt10_Select1stIS7_ESt4lessIiESaIS7_EE29_M_get_insert_hint_unique_posESt23_Rb_tree_const_iteratorIS7_ERS1_,"axG",@progbits,_ZNSt8_Rb_treeIiSt4pairIKiNSt7__cxx114listIS0_IiiESaIS4_EEEESt10_Select1stIS7_ESt4lessIiESaIS7_EE29_M_get_insert_hint_unique_posESt23_Rb_tree_const_iteratorIS7_ERS1_,comdat
	.align 2
	.weak	_ZNSt8_Rb_treeIiSt4pairIKiNSt7__cxx114listIS0_IiiESaIS4_EEEESt10_Select1stIS7_ESt4lessIiESaIS7_EE29_M_get_insert_hint_unique_posESt23_Rb_tree_const_iteratorIS7_ERS1_
	.type	_ZNSt8_Rb_treeIiSt4pairIKiNSt7__cxx114listIS0_IiiESaIS4_EEEESt10_Select1stIS7_ESt4lessIiESaIS7_EE29_M_get_insert_hint_unique_posESt23_Rb_tree_const_iteratorIS7_ERS1_, @function
_ZNSt8_Rb_treeIiSt4pairIKiNSt7__cxx114listIS0_IiiESaIS4_EEEESt10_Select1stIS7_ESt4lessIiESaIS7_EE29_M_get_insert_hint_unique_posESt23_Rb_tree_const_iteratorIS7_ERS1_:
	pushl	%ebp
	movl	%esp, %ebp
	pushl	%ebx
	subl	$36, %esp
	movl	8(%ebp), %eax
	movl	%eax, -28(%ebp)
	movl	12(%ebp), %eax
	movl	%eax, -32(%ebp)
	movl	20(%ebp), %eax
	movl	%eax, -36(%ebp)
	movl	%gs:20, %eax
	movl	%eax, -12(%ebp)
	xorl	%eax, %eax
	leal	-24(%ebp), %eax
	subl	$8, %esp
	leal	16(%ebp), %edx
	pushl	%edx
	pushl	%eax
	call	_ZNKSt23_Rb_tree_const_iteratorISt4pairIKiNSt7__cxx114listIS0_IiiESaIS4_EEEEE13_M_const_castEv
	addl	$12, %esp
	movl	-24(%ebp), %ebx
	subl	$12, %esp
	pushl	-32(%ebp)
	call	_ZNSt8_Rb_treeIiSt4pairIKiNSt7__cxx114listIS0_IiiESaIS4_EEEESt10_Select1stIS7_ESt4lessIiESaIS7_EE6_M_endEv
	addl	$16, %esp
	cmpl	%eax, %ebx
	sete	%al
	testb	%al, %al
	je	.L218
	subl	$12, %esp
	pushl	-32(%ebp)
	call	_ZNKSt8_Rb_treeIiSt4pairIKiNSt7__cxx114listIS0_IiiESaIS4_EEEESt10_Select1stIS7_ESt4lessIiESaIS7_EE4sizeEv
	addl	$16, %esp
	testl	%eax, %eax
	je	.L219
	subl	$12, %esp
	pushl	-32(%ebp)
	call	_ZNSt8_Rb_treeIiSt4pairIKiNSt7__cxx114listIS0_IiiESaIS4_EEEESt10_Select1stIS7_ESt4lessIiESaIS7_EE12_M_rightmostEv
	addl	$16, %esp
	movl	(%eax), %eax
	subl	$12, %esp
	pushl	%eax
	call	_ZNSt8_Rb_treeIiSt4pairIKiNSt7__cxx114listIS0_IiiESaIS4_EEEESt10_Select1stIS7_ESt4lessIiESaIS7_EE6_S_keyEPKSt18_Rb_tree_node_base
	addl	$16, %esp
	movl	%eax, %edx
	movl	-32(%ebp), %eax
	subl	$4, %esp
	pushl	-36(%ebp)
	pushl	%edx
	pushl	%eax
	call	_ZNKSt4lessIiEclERKiS2_
	addl	$16, %esp
	testb	%al, %al
	je	.L219
	movl	$1, %eax
	jmp	.L220
.L219:
	movl	$0, %eax
.L220:
	testb	%al, %al
	je	.L221
	subl	$12, %esp
	pushl	-32(%ebp)
	call	_ZNSt8_Rb_treeIiSt4pairIKiNSt7__cxx114listIS0_IiiESaIS4_EEEESt10_Select1stIS7_ESt4lessIiESaIS7_EE12_M_rightmostEv
	addl	$16, %esp
	movl	$0, -16(%ebp)
	subl	$4, %esp
	pushl	%eax
	leal	-16(%ebp), %eax
	pushl	%eax
	pushl	-28(%ebp)
	call	_ZNSt4pairIPSt18_Rb_tree_node_baseS1_EC1ERKS1_S4_
	addl	$16, %esp
	jmp	.L217
.L221:
	movl	-28(%ebp), %eax
	subl	$4, %esp
	pushl	-36(%ebp)
	pushl	-32(%ebp)
	pushl	%eax
	call	_ZNSt8_Rb_treeIiSt4pairIKiNSt7__cxx114listIS0_IiiESaIS4_EEEESt10_Select1stIS7_ESt4lessIiESaIS7_EE24_M_get_insert_unique_posERS1_
	addl	$12, %esp
	jmp	.L217
.L218:
	movl	-24(%ebp), %eax
	subl	$12, %esp
	pushl	%eax
	call	_ZNSt8_Rb_treeIiSt4pairIKiNSt7__cxx114listIS0_IiiESaIS4_EEEESt10_Select1stIS7_ESt4lessIiESaIS7_EE6_S_keyEPKSt18_Rb_tree_node_base
	addl	$16, %esp
	movl	%eax, %edx
	movl	-32(%ebp), %eax
	subl	$4, %esp
	pushl	%edx
	pushl	-36(%ebp)
	pushl	%eax
	call	_ZNKSt4lessIiEclERKiS2_
	addl	$16, %esp
	testb	%al, %al
	je	.L223
	movl	-24(%ebp), %eax
	movl	%eax, -20(%ebp)
	movl	-24(%ebp), %ebx
	subl	$12, %esp
	pushl	-32(%ebp)
	call	_ZNSt8_Rb_treeIiSt4pairIKiNSt7__cxx114listIS0_IiiESaIS4_EEEESt10_Select1stIS7_ESt4lessIiESaIS7_EE11_M_leftmostEv
	addl	$16, %esp
	movl	(%eax), %eax
	cmpl	%eax, %ebx
	sete	%al
	testb	%al, %al
	je	.L224
	subl	$12, %esp
	pushl	-32(%ebp)
	call	_ZNSt8_Rb_treeIiSt4pairIKiNSt7__cxx114listIS0_IiiESaIS4_EEEESt10_Select1stIS7_ESt4lessIiESaIS7_EE11_M_leftmostEv
	addl	$16, %esp
	movl	%eax, %ebx
	subl	$12, %esp
	pushl	-32(%ebp)
	call	_ZNSt8_Rb_treeIiSt4pairIKiNSt7__cxx114listIS0_IiiESaIS4_EEEESt10_Select1stIS7_ESt4lessIiESaIS7_EE11_M_leftmostEv
	addl	$16, %esp
	subl	$4, %esp
	pushl	%ebx
	pushl	%eax
	pushl	-28(%ebp)
	call	_ZNSt4pairIPSt18_Rb_tree_node_baseS1_EC1ERKS1_S4_
	addl	$16, %esp
	jmp	.L217
.L224:
	subl	$12, %esp
	leal	-20(%ebp), %eax
	pushl	%eax
	call	_ZNSt17_Rb_tree_iteratorISt4pairIKiNSt7__cxx114listIS0_IiiESaIS4_EEEEEmmEv
	addl	$16, %esp
	movl	(%eax), %eax
	subl	$12, %esp
	pushl	%eax
	call	_ZNSt8_Rb_treeIiSt4pairIKiNSt7__cxx114listIS0_IiiESaIS4_EEEESt10_Select1stIS7_ESt4lessIiESaIS7_EE6_S_keyEPKSt18_Rb_tree_node_base
	addl	$16, %esp
	movl	%eax, %edx
	movl	-32(%ebp), %eax
	subl	$4, %esp
	pushl	-36(%ebp)
	pushl	%edx
	pushl	%eax
	call	_ZNKSt4lessIiEclERKiS2_
	addl	$16, %esp
	testb	%al, %al
	je	.L226
	movl	-20(%ebp), %eax
	subl	$12, %esp
	pushl	%eax
	call	_ZNSt8_Rb_treeIiSt4pairIKiNSt7__cxx114listIS0_IiiESaIS4_EEEESt10_Select1stIS7_ESt4lessIiESaIS7_EE8_S_rightEPSt18_Rb_tree_node_base
	addl	$16, %esp
	testl	%eax, %eax
	sete	%al
	testb	%al, %al
	je	.L227
	movl	$0, -16(%ebp)
	subl	$4, %esp
	leal	-20(%ebp), %eax
	pushl	%eax
	leal	-16(%ebp), %eax
	pushl	%eax
	pushl	-28(%ebp)
	call	_ZNSt4pairIPSt18_Rb_tree_node_baseS1_EC1ERKS1_S4_
	addl	$16, %esp
	jmp	.L217
.L227:
	subl	$4, %esp
	leal	-24(%ebp), %eax
	pushl	%eax
	leal	-24(%ebp), %eax
	pushl	%eax
	pushl	-28(%ebp)
	call	_ZNSt4pairIPSt18_Rb_tree_node_baseS1_EC1ERKS1_S4_
	addl	$16, %esp
	jmp	.L217
.L226:
	movl	-28(%ebp), %eax
	subl	$4, %esp
	pushl	-36(%ebp)
	pushl	-32(%ebp)
	pushl	%eax
	call	_ZNSt8_Rb_treeIiSt4pairIKiNSt7__cxx114listIS0_IiiESaIS4_EEEESt10_Select1stIS7_ESt4lessIiESaIS7_EE24_M_get_insert_unique_posERS1_
	addl	$12, %esp
	jmp	.L217
.L223:
	movl	-24(%ebp), %eax
	subl	$12, %esp
	pushl	%eax
	call	_ZNSt8_Rb_treeIiSt4pairIKiNSt7__cxx114listIS0_IiiESaIS4_EEEESt10_Select1stIS7_ESt4lessIiESaIS7_EE6_S_keyEPKSt18_Rb_tree_node_base
	addl	$16, %esp
	movl	%eax, %edx
	movl	-32(%ebp), %eax
	subl	$4, %esp
	pushl	-36(%ebp)
	pushl	%edx
	pushl	%eax
	call	_ZNKSt4lessIiEclERKiS2_
	addl	$16, %esp
	testb	%al, %al
	je	.L228
	movl	-24(%ebp), %eax
	movl	%eax, -20(%ebp)
	movl	-24(%ebp), %ebx
	subl	$12, %esp
	pushl	-32(%ebp)
	call	_ZNSt8_Rb_treeIiSt4pairIKiNSt7__cxx114listIS0_IiiESaIS4_EEEESt10_Select1stIS7_ESt4lessIiESaIS7_EE12_M_rightmostEv
	addl	$16, %esp
	movl	(%eax), %eax
	cmpl	%eax, %ebx
	sete	%al
	testb	%al, %al
	je	.L229
	subl	$12, %esp
	pushl	-32(%ebp)
	call	_ZNSt8_Rb_treeIiSt4pairIKiNSt7__cxx114listIS0_IiiESaIS4_EEEESt10_Select1stIS7_ESt4lessIiESaIS7_EE12_M_rightmostEv
	addl	$16, %esp
	movl	$0, -16(%ebp)
	subl	$4, %esp
	pushl	%eax
	leal	-16(%ebp), %eax
	pushl	%eax
	pushl	-28(%ebp)
	call	_ZNSt4pairIPSt18_Rb_tree_node_baseS1_EC1ERKS1_S4_
	addl	$16, %esp
	jmp	.L217
.L229:
	subl	$12, %esp
	leal	-20(%ebp), %eax
	pushl	%eax
	call	_ZNSt17_Rb_tree_iteratorISt4pairIKiNSt7__cxx114listIS0_IiiESaIS4_EEEEEppEv
	addl	$16, %esp
	movl	(%eax), %eax
	subl	$12, %esp
	pushl	%eax
	call	_ZNSt8_Rb_treeIiSt4pairIKiNSt7__cxx114listIS0_IiiESaIS4_EEEESt10_Select1stIS7_ESt4lessIiESaIS7_EE6_S_keyEPKSt18_Rb_tree_node_base
	addl	$16, %esp
	movl	%eax, %edx
	movl	-32(%ebp), %eax
	subl	$4, %esp
	pushl	%edx
	pushl	-36(%ebp)
	pushl	%eax
	call	_ZNKSt4lessIiEclERKiS2_
	addl	$16, %esp
	testb	%al, %al
	je	.L231
	movl	-24(%ebp), %eax
	subl	$12, %esp
	pushl	%eax
	call	_ZNSt8_Rb_treeIiSt4pairIKiNSt7__cxx114listIS0_IiiESaIS4_EEEESt10_Select1stIS7_ESt4lessIiESaIS7_EE8_S_rightEPSt18_Rb_tree_node_base
	addl	$16, %esp
	testl	%eax, %eax
	sete	%al
	testb	%al, %al
	je	.L232
	movl	$0, -16(%ebp)
	subl	$4, %esp
	leal	-24(%ebp), %eax
	pushl	%eax
	leal	-16(%ebp), %eax
	pushl	%eax
	pushl	-28(%ebp)
	call	_ZNSt4pairIPSt18_Rb_tree_node_baseS1_EC1ERKS1_S4_
	addl	$16, %esp
	jmp	.L217
.L232:
	subl	$4, %esp
	leal	-20(%ebp), %eax
	pushl	%eax
	leal	-20(%ebp), %eax
	pushl	%eax
	pushl	-28(%ebp)
	call	_ZNSt4pairIPSt18_Rb_tree_node_baseS1_EC1ERKS1_S4_
	addl	$16, %esp
	jmp	.L217
.L231:
	movl	-28(%ebp), %eax
	subl	$4, %esp
	pushl	-36(%ebp)
	pushl	-32(%ebp)
	pushl	%eax
	call	_ZNSt8_Rb_treeIiSt4pairIKiNSt7__cxx114listIS0_IiiESaIS4_EEEESt10_Select1stIS7_ESt4lessIiESaIS7_EE24_M_get_insert_unique_posERS1_
	addl	$12, %esp
	jmp	.L217
.L228:
	movl	$0, -16(%ebp)
	subl	$4, %esp
	leal	-16(%ebp), %eax
	pushl	%eax
	leal	-24(%ebp), %eax
	pushl	%eax
	pushl	-28(%ebp)
	call	_ZNSt4pairIPSt18_Rb_tree_node_baseS1_EC1ERKS1_S4_
	addl	$16, %esp
.L217:
	movl	-28(%ebp), %eax
	movl	-12(%ebp), %ecx
	xorl	%gs:20, %ecx
	je	.L234
	call	__stack_chk_fail
.L234:
	movl	-4(%ebp), %ebx
	leave
	ret	$4
	.size	_ZNSt8_Rb_treeIiSt4pairIKiNSt7__cxx114listIS0_IiiESaIS4_EEEESt10_Select1stIS7_ESt4lessIiESaIS7_EE29_M_get_insert_hint_unique_posESt23_Rb_tree_const_iteratorIS7_ERS1_, .-_ZNSt8_Rb_treeIiSt4pairIKiNSt7__cxx114listIS0_IiiESaIS4_EEEESt10_Select1stIS7_ESt4lessIiESaIS7_EE29_M_get_insert_hint_unique_posESt23_Rb_tree_const_iteratorIS7_ERS1_
	.section	.text._ZNKSt10_Select1stISt4pairIKiNSt7__cxx114listIS0_IiiESaIS4_EEEEEclERKS7_,"axG",@progbits,_ZNKSt10_Select1stISt4pairIKiNSt7__cxx114listIS0_IiiESaIS4_EEEEEclERKS7_,comdat
	.align 2
	.weak	_ZNKSt10_Select1stISt4pairIKiNSt7__cxx114listIS0_IiiESaIS4_EEEEEclERKS7_
	.type	_ZNKSt10_Select1stISt4pairIKiNSt7__cxx114listIS0_IiiESaIS4_EEEEEclERKS7_, @function
_ZNKSt10_Select1stISt4pairIKiNSt7__cxx114listIS0_IiiESaIS4_EEEEEclERKS7_:
	pushl	%ebp
	movl	%esp, %ebp
	movl	12(%ebp), %eax
	popl	%ebp
	ret
	.size	_ZNKSt10_Select1stISt4pairIKiNSt7__cxx114listIS0_IiiESaIS4_EEEEEclERKS7_, .-_ZNKSt10_Select1stISt4pairIKiNSt7__cxx114listIS0_IiiESaIS4_EEEEEclERKS7_
	.section	.text._ZNSt8_Rb_treeIiSt4pairIKiNSt7__cxx114listIS0_IiiESaIS4_EEEESt10_Select1stIS7_ESt4lessIiESaIS7_EE10_M_insert_INSD_11_Alloc_nodeEEESt17_Rb_tree_iteratorIS7_EPSt18_Rb_tree_node_baseSJ_RKS7_RT_,"axG",@progbits,_ZNSt8_Rb_treeIiSt4pairIKiNSt7__cxx114listIS0_IiiESaIS4_EEEESt10_Select1stIS7_ESt4lessIiESaIS7_EE10_M_insert_INSD_11_Alloc_nodeEEESt17_Rb_tree_iteratorIS7_EPSt18_Rb_tree_node_baseSJ_RKS7_RT_,comdat
	.align 2
	.weak	_ZNSt8_Rb_treeIiSt4pairIKiNSt7__cxx114listIS0_IiiESaIS4_EEEESt10_Select1stIS7_ESt4lessIiESaIS7_EE10_M_insert_INSD_11_Alloc_nodeEEESt17_Rb_tree_iteratorIS7_EPSt18_Rb_tree_node_baseSJ_RKS7_RT_
	.type	_ZNSt8_Rb_treeIiSt4pairIKiNSt7__cxx114listIS0_IiiESaIS4_EEEESt10_Select1stIS7_ESt4lessIiESaIS7_EE10_M_insert_INSD_11_Alloc_nodeEEESt17_Rb_tree_iteratorIS7_EPSt18_Rb_tree_node_baseSJ_RKS7_RT_, @function
_ZNSt8_Rb_treeIiSt4pairIKiNSt7__cxx114listIS0_IiiESaIS4_EEEESt10_Select1stIS7_ESt4lessIiESaIS7_EE10_M_insert_INSD_11_Alloc_nodeEEESt17_Rb_tree_iteratorIS7_EPSt18_Rb_tree_node_baseSJ_RKS7_RT_:
	pushl	%ebp
	movl	%esp, %ebp
	pushl	%esi
	pushl	%ebx
	subl	$48, %esp
	movl	8(%ebp), %eax
	movl	%eax, -28(%ebp)
	movl	12(%ebp), %eax
	movl	%eax, -32(%ebp)
	movl	16(%ebp), %eax
	movl	%eax, -36(%ebp)
	movl	20(%ebp), %eax
	movl	%eax, -40(%ebp)
	movl	24(%ebp), %eax
	movl	%eax, -44(%ebp)
	movl	28(%ebp), %eax
	movl	%eax, -48(%ebp)
	movl	%gs:20, %eax
	movl	%eax, -12(%ebp)
	xorl	%eax, %eax
	movl	$0, %ebx
	cmpl	$0, -36(%ebp)
	jne	.L238
	subl	$12, %esp
	pushl	-32(%ebp)
	call	_ZNSt8_Rb_treeIiSt4pairIKiNSt7__cxx114listIS0_IiiESaIS4_EEEESt10_Select1stIS7_ESt4lessIiESaIS7_EE6_M_endEv
	addl	$16, %esp
	cmpl	-40(%ebp), %eax
	je	.L238
	subl	$12, %esp
	pushl	-40(%ebp)
	call	_ZNSt8_Rb_treeIiSt4pairIKiNSt7__cxx114listIS0_IiiESaIS4_EEEESt10_Select1stIS7_ESt4lessIiESaIS7_EE6_S_keyEPKSt18_Rb_tree_node_base
	addl	$16, %esp
	movl	%eax, %esi
	movl	$1, %ebx
	subl	$8, %esp
	pushl	-44(%ebp)
	leal	-18(%ebp), %eax
	pushl	%eax
	call	_ZNKSt10_Select1stISt4pairIKiNSt7__cxx114listIS0_IiiESaIS4_EEEEEclERKS7_
	addl	$16, %esp
	movl	%eax, %edx
	movl	-32(%ebp), %eax
	subl	$4, %esp
	pushl	%esi
	pushl	%edx
	pushl	%eax
	call	_ZNKSt4lessIiEclERKiS2_
	addl	$16, %esp
	testb	%al, %al
	je	.L239
.L238:
	movl	$1, %eax
	jmp	.L240
.L239:
	movl	$0, %eax
.L240:
	movb	%al, -17(%ebp)
	testb	%bl, %bl
	nop
	subl	$8, %esp
	pushl	-44(%ebp)
	pushl	-48(%ebp)
	call	_ZNKSt8_Rb_treeIiSt4pairIKiNSt7__cxx114listIS0_IiiESaIS4_EEEESt10_Select1stIS7_ESt4lessIiESaIS7_EE11_Alloc_nodeclIS7_EEPSt13_Rb_tree_nodeIS7_ERKT_
	addl	$16, %esp
	movl	%eax, -16(%ebp)
	movl	-32(%ebp), %eax
	leal	4(%eax), %edx
	movzbl	-17(%ebp), %eax
	pushl	%edx
	pushl	-40(%ebp)
	pushl	-16(%ebp)
	pushl	%eax
	call	_ZSt29_Rb_tree_insert_and_rebalancebPSt18_Rb_tree_node_baseS0_RS_
	addl	$16, %esp
	movl	-32(%ebp), %eax
	movl	20(%eax), %eax
	leal	1(%eax), %edx
	movl	-32(%ebp), %eax
	movl	%edx, 20(%eax)
	subl	$8, %esp
	pushl	-16(%ebp)
	pushl	-28(%ebp)
	call	_ZNSt17_Rb_tree_iteratorISt4pairIKiNSt7__cxx114listIS0_IiiESaIS4_EEEEEC1EPSt13_Rb_tree_nodeIS7_E
	addl	$16, %esp
	movl	-28(%ebp), %eax
	movl	-12(%ebp), %ecx
	xorl	%gs:20, %ecx
	je	.L243
	call	__stack_chk_fail
.L243:
	leal	-8(%ebp), %esp
	popl	%ebx
	popl	%esi
	popl	%ebp
	ret	$4
	.size	_ZNSt8_Rb_treeIiSt4pairIKiNSt7__cxx114listIS0_IiiESaIS4_EEEESt10_Select1stIS7_ESt4lessIiESaIS7_EE10_M_insert_INSD_11_Alloc_nodeEEESt17_Rb_tree_iteratorIS7_EPSt18_Rb_tree_node_baseSJ_RKS7_RT_, .-_ZNSt8_Rb_treeIiSt4pairIKiNSt7__cxx114listIS0_IiiESaIS4_EEEESt10_Select1stIS7_ESt4lessIiESaIS7_EE10_M_insert_INSD_11_Alloc_nodeEEESt17_Rb_tree_iteratorIS7_EPSt18_Rb_tree_node_baseSJ_RKS7_RT_
	.section	.text._ZN9__gnu_cxx13new_allocatorISt10_List_nodeISt4pairIiiEEE8allocateEjPKv,"axG",@progbits,_ZN9__gnu_cxx13new_allocatorISt10_List_nodeISt4pairIiiEEE8allocateEjPKv,comdat
	.align 2
	.weak	_ZN9__gnu_cxx13new_allocatorISt10_List_nodeISt4pairIiiEEE8allocateEjPKv
	.type	_ZN9__gnu_cxx13new_allocatorISt10_List_nodeISt4pairIiiEEE8allocateEjPKv, @function
_ZN9__gnu_cxx13new_allocatorISt10_List_nodeISt4pairIiiEEE8allocateEjPKv:
	pushl	%ebp
	movl	%esp, %ebp
	subl	$8, %esp
	subl	$12, %esp
	pushl	8(%ebp)
	call	_ZNK9__gnu_cxx13new_allocatorISt10_List_nodeISt4pairIiiEEE8max_sizeEv
	addl	$16, %esp
	cmpl	12(%ebp), %eax
	setb	%al
	testb	%al, %al
	je	.L245
	call	_ZSt17__throw_bad_allocv
.L245:
	movl	12(%ebp), %eax
	sall	$4, %eax
	subl	$12, %esp
	pushl	%eax
	call	_Znwj
	addl	$16, %esp
	leave
	ret
	.size	_ZN9__gnu_cxx13new_allocatorISt10_List_nodeISt4pairIiiEEE8allocateEjPKv, .-_ZN9__gnu_cxx13new_allocatorISt10_List_nodeISt4pairIiiEEE8allocateEjPKv
	.section	.text._ZNKSt8_Rb_treeIiSt4pairIKiNSt7__cxx114listIS0_IiiESaIS4_EEEESt10_Select1stIS7_ESt4lessIiESaIS7_EE13get_allocatorEv,"axG",@progbits,_ZNKSt8_Rb_treeIiSt4pairIKiNSt7__cxx114listIS0_IiiESaIS4_EEEESt10_Select1stIS7_ESt4lessIiESaIS7_EE13get_allocatorEv,comdat
	.align 2
	.weak	_ZNKSt8_Rb_treeIiSt4pairIKiNSt7__cxx114listIS0_IiiESaIS4_EEEESt10_Select1stIS7_ESt4lessIiESaIS7_EE13get_allocatorEv
	.type	_ZNKSt8_Rb_treeIiSt4pairIKiNSt7__cxx114listIS0_IiiESaIS4_EEEESt10_Select1stIS7_ESt4lessIiESaIS7_EE13get_allocatorEv, @function
_ZNKSt8_Rb_treeIiSt4pairIKiNSt7__cxx114listIS0_IiiESaIS4_EEEESt10_Select1stIS7_ESt4lessIiESaIS7_EE13get_allocatorEv:
	pushl	%ebp
	movl	%esp, %ebp
	subl	$8, %esp
	subl	$12, %esp
	pushl	12(%ebp)
	call	_ZNKSt8_Rb_treeIiSt4pairIKiNSt7__cxx114listIS0_IiiESaIS4_EEEESt10_Select1stIS7_ESt4lessIiESaIS7_EE21_M_get_Node_allocatorEv
	addl	$16, %esp
	subl	$8, %esp
	pushl	%eax
	pushl	8(%ebp)
	call	_ZNSaISt4pairIKiNSt7__cxx114listIS_IiiESaIS3_EEEEEC1ISt13_Rb_tree_nodeIS6_EEERKSaIT_E
	addl	$16, %esp
	movl	8(%ebp), %eax
	leave
	ret	$4
	.size	_ZNKSt8_Rb_treeIiSt4pairIKiNSt7__cxx114listIS0_IiiESaIS4_EEEESt10_Select1stIS7_ESt4lessIiESaIS7_EE13get_allocatorEv, .-_ZNKSt8_Rb_treeIiSt4pairIKiNSt7__cxx114listIS0_IiiESaIS4_EEEESt10_Select1stIS7_ESt4lessIiESaIS7_EE13get_allocatorEv
	.section	.text._ZNSaISt4pairIKiNSt7__cxx114listIS_IiiESaIS3_EEEEED2Ev,"axG",@progbits,_ZNSaISt4pairIKiNSt7__cxx114listIS_IiiESaIS3_EEEEED5Ev,comdat
	.align 2
	.weak	_ZNSaISt4pairIKiNSt7__cxx114listIS_IiiESaIS3_EEEEED2Ev
	.type	_ZNSaISt4pairIKiNSt7__cxx114listIS_IiiESaIS3_EEEEED2Ev, @function
_ZNSaISt4pairIKiNSt7__cxx114listIS_IiiESaIS3_EEEEED2Ev:
	pushl	%ebp
	movl	%esp, %ebp
	subl	$8, %esp
	subl	$12, %esp
	pushl	8(%ebp)
	call	_ZN9__gnu_cxx13new_allocatorISt4pairIKiNSt7__cxx114listIS1_IiiESaIS5_EEEEED2Ev
	addl	$16, %esp
	nop
	leave
	ret
	.size	_ZNSaISt4pairIKiNSt7__cxx114listIS_IiiESaIS3_EEEEED2Ev, .-_ZNSaISt4pairIKiNSt7__cxx114listIS_IiiESaIS3_EEEEED2Ev
	.weak	_ZNSaISt4pairIKiNSt7__cxx114listIS_IiiESaIS3_EEEEED1Ev
	.set	_ZNSaISt4pairIKiNSt7__cxx114listIS_IiiESaIS3_EEEEED1Ev,_ZNSaISt4pairIKiNSt7__cxx114listIS_IiiESaIS3_EEEEED2Ev
	.section	.text._ZN9__gnu_cxx13new_allocatorISt4pairIKiNSt7__cxx114listIS1_IiiESaIS5_EEEEE7destroyEPS8_,"axG",@progbits,_ZN9__gnu_cxx13new_allocatorISt4pairIKiNSt7__cxx114listIS1_IiiESaIS5_EEEEE7destroyEPS8_,comdat
	.align 2
	.weak	_ZN9__gnu_cxx13new_allocatorISt4pairIKiNSt7__cxx114listIS1_IiiESaIS5_EEEEE7destroyEPS8_
	.type	_ZN9__gnu_cxx13new_allocatorISt4pairIKiNSt7__cxx114listIS1_IiiESaIS5_EEEEE7destroyEPS8_, @function
_ZN9__gnu_cxx13new_allocatorISt4pairIKiNSt7__cxx114listIS1_IiiESaIS5_EEEEE7destroyEPS8_:
	pushl	%ebp
	movl	%esp, %ebp
	subl	$8, %esp
	subl	$12, %esp
	pushl	12(%ebp)
	call	_ZNSt4pairIKiNSt7__cxx114listIS_IiiESaIS3_EEEED1Ev
	addl	$16, %esp
	nop
	leave
	ret
	.size	_ZN9__gnu_cxx13new_allocatorISt4pairIKiNSt7__cxx114listIS1_IiiESaIS5_EEEEE7destroyEPS8_, .-_ZN9__gnu_cxx13new_allocatorISt4pairIKiNSt7__cxx114listIS1_IiiESaIS5_EEEEE7destroyEPS8_
	.section	.text._ZN9__gnu_cxx14__alloc_traitsISaISt13_Rb_tree_nodeISt4pairIKiNSt7__cxx114listIS2_IiiESaIS6_EEEEEEE10deallocateERSB_PSA_j,"axG",@progbits,_ZN9__gnu_cxx14__alloc_traitsISaISt13_Rb_tree_nodeISt4pairIKiNSt7__cxx114listIS2_IiiESaIS6_EEEEEEE10deallocateERSB_PSA_j,comdat
	.weak	_ZN9__gnu_cxx14__alloc_traitsISaISt13_Rb_tree_nodeISt4pairIKiNSt7__cxx114listIS2_IiiESaIS6_EEEEEEE10deallocateERSB_PSA_j
	.type	_ZN9__gnu_cxx14__alloc_traitsISaISt13_Rb_tree_nodeISt4pairIKiNSt7__cxx114listIS2_IiiESaIS6_EEEEEEE10deallocateERSB_PSA_j, @function
_ZN9__gnu_cxx14__alloc_traitsISaISt13_Rb_tree_nodeISt4pairIKiNSt7__cxx114listIS2_IiiESaIS6_EEEEEEE10deallocateERSB_PSA_j:
	pushl	%ebp
	movl	%esp, %ebp
	subl	$8, %esp
	subl	$4, %esp
	pushl	16(%ebp)
	pushl	12(%ebp)
	pushl	8(%ebp)
	call	_ZN9__gnu_cxx13new_allocatorISt13_Rb_tree_nodeISt4pairIKiNSt7__cxx114listIS2_IiiESaIS6_EEEEEE10deallocateEPSA_j
	addl	$16, %esp
	nop
	leave
	ret
	.size	_ZN9__gnu_cxx14__alloc_traitsISaISt13_Rb_tree_nodeISt4pairIKiNSt7__cxx114listIS2_IiiESaIS6_EEEEEEE10deallocateERSB_PSA_j, .-_ZN9__gnu_cxx14__alloc_traitsISaISt13_Rb_tree_nodeISt4pairIKiNSt7__cxx114listIS2_IiiESaIS6_EEEEEEE10deallocateERSB_PSA_j
	.section	.text._ZNSt8_Rb_treeIiSt4pairIKiNSt7__cxx114listIS0_IiiESaIS4_EEEESt10_Select1stIS7_ESt4lessIiESaIS7_EE21_M_get_Node_allocatorEv,"axG",@progbits,_ZNSt8_Rb_treeIiSt4pairIKiNSt7__cxx114listIS0_IiiESaIS4_EEEESt10_Select1stIS7_ESt4lessIiESaIS7_EE21_M_get_Node_allocatorEv,comdat
	.align 2
	.weak	_ZNSt8_Rb_treeIiSt4pairIKiNSt7__cxx114listIS0_IiiESaIS4_EEEESt10_Select1stIS7_ESt4lessIiESaIS7_EE21_M_get_Node_allocatorEv
	.type	_ZNSt8_Rb_treeIiSt4pairIKiNSt7__cxx114listIS0_IiiESaIS4_EEEESt10_Select1stIS7_ESt4lessIiESaIS7_EE21_M_get_Node_allocatorEv, @function
_ZNSt8_Rb_treeIiSt4pairIKiNSt7__cxx114listIS0_IiiESaIS4_EEEESt10_Select1stIS7_ESt4lessIiESaIS7_EE21_M_get_Node_allocatorEv:
	pushl	%ebp
	movl	%esp, %ebp
	movl	8(%ebp), %eax
	popl	%ebp
	ret
	.size	_ZNSt8_Rb_treeIiSt4pairIKiNSt7__cxx114listIS0_IiiESaIS4_EEEESt10_Select1stIS7_ESt4lessIiESaIS7_EE21_M_get_Node_allocatorEv, .-_ZNSt8_Rb_treeIiSt4pairIKiNSt7__cxx114listIS0_IiiESaIS4_EEEESt10_Select1stIS7_ESt4lessIiESaIS7_EE21_M_get_Node_allocatorEv
	.section	.text._ZNSt8_Rb_treeIiSt4pairIKiNSt7__cxx114listIS0_IiiESaIS4_EEEESt10_Select1stIS7_ESt4lessIiESaIS7_EE8_S_valueEPKSt13_Rb_tree_nodeIS7_E,"axG",@progbits,_ZNSt8_Rb_treeIiSt4pairIKiNSt7__cxx114listIS0_IiiESaIS4_EEEESt10_Select1stIS7_ESt4lessIiESaIS7_EE8_S_valueEPKSt13_Rb_tree_nodeIS7_E,comdat
	.weak	_ZNSt8_Rb_treeIiSt4pairIKiNSt7__cxx114listIS0_IiiESaIS4_EEEESt10_Select1stIS7_ESt4lessIiESaIS7_EE8_S_valueEPKSt13_Rb_tree_nodeIS7_E
	.type	_ZNSt8_Rb_treeIiSt4pairIKiNSt7__cxx114listIS0_IiiESaIS4_EEEESt10_Select1stIS7_ESt4lessIiESaIS7_EE8_S_valueEPKSt13_Rb_tree_nodeIS7_E, @function
_ZNSt8_Rb_treeIiSt4pairIKiNSt7__cxx114listIS0_IiiESaIS4_EEEESt10_Select1stIS7_ESt4lessIiESaIS7_EE8_S_valueEPKSt13_Rb_tree_nodeIS7_E:
	pushl	%ebp
	movl	%esp, %ebp
	subl	$8, %esp
	subl	$12, %esp
	pushl	8(%ebp)
	call	_ZNKSt13_Rb_tree_nodeISt4pairIKiNSt7__cxx114listIS0_IiiESaIS4_EEEEE9_M_valptrEv
	addl	$16, %esp
	leave
	ret
	.size	_ZNSt8_Rb_treeIiSt4pairIKiNSt7__cxx114listIS0_IiiESaIS4_EEEESt10_Select1stIS7_ESt4lessIiESaIS7_EE8_S_valueEPKSt13_Rb_tree_nodeIS7_E, .-_ZNSt8_Rb_treeIiSt4pairIKiNSt7__cxx114listIS0_IiiESaIS4_EEEESt10_Select1stIS7_ESt4lessIiESaIS7_EE8_S_valueEPKSt13_Rb_tree_nodeIS7_E
	.section	.text._ZN9__gnu_cxx13new_allocatorISt10_List_nodeISt4pairIiiEEEC2Ev,"axG",@progbits,_ZN9__gnu_cxx13new_allocatorISt10_List_nodeISt4pairIiiEEEC5Ev,comdat
	.align 2
	.weak	_ZN9__gnu_cxx13new_allocatorISt10_List_nodeISt4pairIiiEEEC2Ev
	.type	_ZN9__gnu_cxx13new_allocatorISt10_List_nodeISt4pairIiiEEEC2Ev, @function
_ZN9__gnu_cxx13new_allocatorISt10_List_nodeISt4pairIiiEEEC2Ev:
	pushl	%ebp
	movl	%esp, %ebp
	nop
	popl	%ebp
	ret
	.size	_ZN9__gnu_cxx13new_allocatorISt10_List_nodeISt4pairIiiEEEC2Ev, .-_ZN9__gnu_cxx13new_allocatorISt10_List_nodeISt4pairIiiEEEC2Ev
	.weak	_ZN9__gnu_cxx13new_allocatorISt10_List_nodeISt4pairIiiEEEC1Ev
	.set	_ZN9__gnu_cxx13new_allocatorISt10_List_nodeISt4pairIiiEEEC1Ev,_ZN9__gnu_cxx13new_allocatorISt10_List_nodeISt4pairIiiEEEC2Ev
	.section	.text._ZN9__gnu_cxx13new_allocatorISt4pairIiiEEC2Ev,"axG",@progbits,_ZN9__gnu_cxx13new_allocatorISt4pairIiiEEC5Ev,comdat
	.align 2
	.weak	_ZN9__gnu_cxx13new_allocatorISt4pairIiiEEC2Ev
	.type	_ZN9__gnu_cxx13new_allocatorISt4pairIiiEEC2Ev, @function
_ZN9__gnu_cxx13new_allocatorISt4pairIiiEEC2Ev:
	pushl	%ebp
	movl	%esp, %ebp
	nop
	popl	%ebp
	ret
	.size	_ZN9__gnu_cxx13new_allocatorISt4pairIiiEEC2Ev, .-_ZN9__gnu_cxx13new_allocatorISt4pairIiiEEC2Ev
	.weak	_ZN9__gnu_cxx13new_allocatorISt4pairIiiEEC1Ev
	.set	_ZN9__gnu_cxx13new_allocatorISt4pairIiiEEC1Ev,_ZN9__gnu_cxx13new_allocatorISt4pairIiiEEC2Ev
	.section	.text._ZNSaISt10_List_nodeISt4pairIiiEEEC2ERKS3_,"axG",@progbits,_ZNSaISt10_List_nodeISt4pairIiiEEEC5ERKS3_,comdat
	.align 2
	.weak	_ZNSaISt10_List_nodeISt4pairIiiEEEC2ERKS3_
	.type	_ZNSaISt10_List_nodeISt4pairIiiEEEC2ERKS3_, @function
_ZNSaISt10_List_nodeISt4pairIiiEEEC2ERKS3_:
	pushl	%ebp
	movl	%esp, %ebp
	subl	$8, %esp
	subl	$8, %esp
	pushl	12(%ebp)
	pushl	8(%ebp)
	call	_ZN9__gnu_cxx13new_allocatorISt10_List_nodeISt4pairIiiEEEC2ERKS5_
	addl	$16, %esp
	nop
	leave
	ret
	.size	_ZNSaISt10_List_nodeISt4pairIiiEEEC2ERKS3_, .-_ZNSaISt10_List_nodeISt4pairIiiEEEC2ERKS3_
	.weak	_ZNSaISt10_List_nodeISt4pairIiiEEEC1ERKS3_
	.set	_ZNSaISt10_List_nodeISt4pairIiiEEEC1ERKS3_,_ZNSaISt10_List_nodeISt4pairIiiEEEC2ERKS3_
	.section	.text._ZNKSt23_Rb_tree_const_iteratorISt4pairIKiNSt7__cxx114listIS0_IiiESaIS4_EEEEE13_M_const_castEv,"axG",@progbits,_ZNKSt23_Rb_tree_const_iteratorISt4pairIKiNSt7__cxx114listIS0_IiiESaIS4_EEEEE13_M_const_castEv,comdat
	.align 2
	.weak	_ZNKSt23_Rb_tree_const_iteratorISt4pairIKiNSt7__cxx114listIS0_IiiESaIS4_EEEEE13_M_const_castEv
	.type	_ZNKSt23_Rb_tree_const_iteratorISt4pairIKiNSt7__cxx114listIS0_IiiESaIS4_EEEEE13_M_const_castEv, @function
_ZNKSt23_Rb_tree_const_iteratorISt4pairIKiNSt7__cxx114listIS0_IiiESaIS4_EEEEE13_M_const_castEv:
	pushl	%ebp
	movl	%esp, %ebp
	subl	$8, %esp
	movl	12(%ebp), %eax
	movl	(%eax), %eax
	subl	$8, %esp
	pushl	%eax
	pushl	8(%ebp)
	call	_ZNSt17_Rb_tree_iteratorISt4pairIKiNSt7__cxx114listIS0_IiiESaIS4_EEEEEC1EPSt13_Rb_tree_nodeIS7_E
	addl	$16, %esp
	movl	8(%ebp), %eax
	leave
	ret	$4
	.size	_ZNKSt23_Rb_tree_const_iteratorISt4pairIKiNSt7__cxx114listIS0_IiiESaIS4_EEEEE13_M_const_castEv, .-_ZNKSt23_Rb_tree_const_iteratorISt4pairIKiNSt7__cxx114listIS0_IiiESaIS4_EEEEE13_M_const_castEv
	.section	.text._ZNKSt8_Rb_treeIiSt4pairIKiNSt7__cxx114listIS0_IiiESaIS4_EEEESt10_Select1stIS7_ESt4lessIiESaIS7_EE4sizeEv,"axG",@progbits,_ZNKSt8_Rb_treeIiSt4pairIKiNSt7__cxx114listIS0_IiiESaIS4_EEEESt10_Select1stIS7_ESt4lessIiESaIS7_EE4sizeEv,comdat
	.align 2
	.weak	_ZNKSt8_Rb_treeIiSt4pairIKiNSt7__cxx114listIS0_IiiESaIS4_EEEESt10_Select1stIS7_ESt4lessIiESaIS7_EE4sizeEv
	.type	_ZNKSt8_Rb_treeIiSt4pairIKiNSt7__cxx114listIS0_IiiESaIS4_EEEESt10_Select1stIS7_ESt4lessIiESaIS7_EE4sizeEv, @function
_ZNKSt8_Rb_treeIiSt4pairIKiNSt7__cxx114listIS0_IiiESaIS4_EEEESt10_Select1stIS7_ESt4lessIiESaIS7_EE4sizeEv:
	pushl	%ebp
	movl	%esp, %ebp
	movl	8(%ebp), %eax
	movl	20(%eax), %eax
	popl	%ebp
	ret
	.size	_ZNKSt8_Rb_treeIiSt4pairIKiNSt7__cxx114listIS0_IiiESaIS4_EEEESt10_Select1stIS7_ESt4lessIiESaIS7_EE4sizeEv, .-_ZNKSt8_Rb_treeIiSt4pairIKiNSt7__cxx114listIS0_IiiESaIS4_EEEESt10_Select1stIS7_ESt4lessIiESaIS7_EE4sizeEv
	.section	.text._ZNSt8_Rb_treeIiSt4pairIKiNSt7__cxx114listIS0_IiiESaIS4_EEEESt10_Select1stIS7_ESt4lessIiESaIS7_EE12_M_rightmostEv,"axG",@progbits,_ZNSt8_Rb_treeIiSt4pairIKiNSt7__cxx114listIS0_IiiESaIS4_EEEESt10_Select1stIS7_ESt4lessIiESaIS7_EE12_M_rightmostEv,comdat
	.align 2
	.weak	_ZNSt8_Rb_treeIiSt4pairIKiNSt7__cxx114listIS0_IiiESaIS4_EEEESt10_Select1stIS7_ESt4lessIiESaIS7_EE12_M_rightmostEv
	.type	_ZNSt8_Rb_treeIiSt4pairIKiNSt7__cxx114listIS0_IiiESaIS4_EEEESt10_Select1stIS7_ESt4lessIiESaIS7_EE12_M_rightmostEv, @function
_ZNSt8_Rb_treeIiSt4pairIKiNSt7__cxx114listIS0_IiiESaIS4_EEEESt10_Select1stIS7_ESt4lessIiESaIS7_EE12_M_rightmostEv:
	pushl	%ebp
	movl	%esp, %ebp
	movl	8(%ebp), %eax
	addl	$16, %eax
	popl	%ebp
	ret
	.size	_ZNSt8_Rb_treeIiSt4pairIKiNSt7__cxx114listIS0_IiiESaIS4_EEEESt10_Select1stIS7_ESt4lessIiESaIS7_EE12_M_rightmostEv, .-_ZNSt8_Rb_treeIiSt4pairIKiNSt7__cxx114listIS0_IiiESaIS4_EEEESt10_Select1stIS7_ESt4lessIiESaIS7_EE12_M_rightmostEv
	.section	.text._ZNSt8_Rb_treeIiSt4pairIKiNSt7__cxx114listIS0_IiiESaIS4_EEEESt10_Select1stIS7_ESt4lessIiESaIS7_EE6_S_keyEPKSt18_Rb_tree_node_base,"axG",@progbits,_ZNSt8_Rb_treeIiSt4pairIKiNSt7__cxx114listIS0_IiiESaIS4_EEEESt10_Select1stIS7_ESt4lessIiESaIS7_EE6_S_keyEPKSt18_Rb_tree_node_base,comdat
	.weak	_ZNSt8_Rb_treeIiSt4pairIKiNSt7__cxx114listIS0_IiiESaIS4_EEEESt10_Select1stIS7_ESt4lessIiESaIS7_EE6_S_keyEPKSt18_Rb_tree_node_base
	.type	_ZNSt8_Rb_treeIiSt4pairIKiNSt7__cxx114listIS0_IiiESaIS4_EEEESt10_Select1stIS7_ESt4lessIiESaIS7_EE6_S_keyEPKSt18_Rb_tree_node_base, @function
_ZNSt8_Rb_treeIiSt4pairIKiNSt7__cxx114listIS0_IiiESaIS4_EEEESt10_Select1stIS7_ESt4lessIiESaIS7_EE6_S_keyEPKSt18_Rb_tree_node_base:
	pushl	%ebp
	movl	%esp, %ebp
	subl	$40, %esp
	movl	8(%ebp), %eax
	movl	%eax, -28(%ebp)
	movl	%gs:20, %eax
	movl	%eax, -12(%ebp)
	xorl	%eax, %eax
	subl	$12, %esp
	pushl	-28(%ebp)
	call	_ZNSt8_Rb_treeIiSt4pairIKiNSt7__cxx114listIS0_IiiESaIS4_EEEESt10_Select1stIS7_ESt4lessIiESaIS7_EE8_S_valueEPKSt18_Rb_tree_node_base
	addl	$16, %esp
	subl	$8, %esp
	pushl	%eax
	leal	-13(%ebp), %eax
	pushl	%eax
	call	_ZNKSt10_Select1stISt4pairIKiNSt7__cxx114listIS0_IiiESaIS4_EEEEEclERKS7_
	addl	$16, %esp
	movl	-12(%ebp), %edx
	xorl	%gs:20, %edx
	je	.L267
	call	__stack_chk_fail
.L267:
	leave
	ret
	.size	_ZNSt8_Rb_treeIiSt4pairIKiNSt7__cxx114listIS0_IiiESaIS4_EEEESt10_Select1stIS7_ESt4lessIiESaIS7_EE6_S_keyEPKSt18_Rb_tree_node_base, .-_ZNSt8_Rb_treeIiSt4pairIKiNSt7__cxx114listIS0_IiiESaIS4_EEEESt10_Select1stIS7_ESt4lessIiESaIS7_EE6_S_keyEPKSt18_Rb_tree_node_base
	.section	.text._ZNSt4pairIPSt18_Rb_tree_node_baseS1_EC2ERKS1_S4_,"axG",@progbits,_ZNSt4pairIPSt18_Rb_tree_node_baseS1_EC5ERKS1_S4_,comdat
	.align 2
	.weak	_ZNSt4pairIPSt18_Rb_tree_node_baseS1_EC2ERKS1_S4_
	.type	_ZNSt4pairIPSt18_Rb_tree_node_baseS1_EC2ERKS1_S4_, @function
_ZNSt4pairIPSt18_Rb_tree_node_baseS1_EC2ERKS1_S4_:
	pushl	%ebp
	movl	%esp, %ebp
	movl	12(%ebp), %eax
	movl	(%eax), %edx
	movl	8(%ebp), %eax
	movl	%edx, (%eax)
	movl	16(%ebp), %eax
	movl	(%eax), %edx
	movl	8(%ebp), %eax
	movl	%edx, 4(%eax)
	nop
	popl	%ebp
	ret
	.size	_ZNSt4pairIPSt18_Rb_tree_node_baseS1_EC2ERKS1_S4_, .-_ZNSt4pairIPSt18_Rb_tree_node_baseS1_EC2ERKS1_S4_
	.weak	_ZNSt4pairIPSt18_Rb_tree_node_baseS1_EC1ERKS1_S4_
	.set	_ZNSt4pairIPSt18_Rb_tree_node_baseS1_EC1ERKS1_S4_,_ZNSt4pairIPSt18_Rb_tree_node_baseS1_EC2ERKS1_S4_
	.section	.text._ZNSt8_Rb_treeIiSt4pairIKiNSt7__cxx114listIS0_IiiESaIS4_EEEESt10_Select1stIS7_ESt4lessIiESaIS7_EE24_M_get_insert_unique_posERS1_,"axG",@progbits,_ZNSt8_Rb_treeIiSt4pairIKiNSt7__cxx114listIS0_IiiESaIS4_EEEESt10_Select1stIS7_ESt4lessIiESaIS7_EE24_M_get_insert_unique_posERS1_,comdat
	.align 2
	.weak	_ZNSt8_Rb_treeIiSt4pairIKiNSt7__cxx114listIS0_IiiESaIS4_EEEESt10_Select1stIS7_ESt4lessIiESaIS7_EE24_M_get_insert_unique_posERS1_
	.type	_ZNSt8_Rb_treeIiSt4pairIKiNSt7__cxx114listIS0_IiiESaIS4_EEEESt10_Select1stIS7_ESt4lessIiESaIS7_EE24_M_get_insert_unique_posERS1_, @function
_ZNSt8_Rb_treeIiSt4pairIKiNSt7__cxx114listIS0_IiiESaIS4_EEEESt10_Select1stIS7_ESt4lessIiESaIS7_EE24_M_get_insert_unique_posERS1_:
	pushl	%ebp
	movl	%esp, %ebp
	subl	$56, %esp
	movl	8(%ebp), %eax
	movl	%eax, -44(%ebp)
	movl	12(%ebp), %eax
	movl	%eax, -48(%ebp)
	movl	16(%ebp), %eax
	movl	%eax, -52(%ebp)
	movl	%gs:20, %eax
	movl	%eax, -12(%ebp)
	xorl	%eax, %eax
	subl	$12, %esp
	pushl	-48(%ebp)
	call	_ZNSt8_Rb_treeIiSt4pairIKiNSt7__cxx114listIS0_IiiESaIS4_EEEESt10_Select1stIS7_ESt4lessIiESaIS7_EE8_M_beginEv
	addl	$16, %esp
	movl	%eax, -20(%ebp)
	subl	$12, %esp
	pushl	-48(%ebp)
	call	_ZNSt8_Rb_treeIiSt4pairIKiNSt7__cxx114listIS0_IiiESaIS4_EEEESt10_Select1stIS7_ESt4lessIiESaIS7_EE6_M_endEv
	addl	$16, %esp
	movl	%eax, -16(%ebp)
	movb	$1, -33(%ebp)
.L273:
	cmpl	$0, -20(%ebp)
	je	.L270
	movl	-20(%ebp), %eax
	movl	%eax, -16(%ebp)
	subl	$12, %esp
	pushl	-20(%ebp)
	call	_ZNSt8_Rb_treeIiSt4pairIKiNSt7__cxx114listIS0_IiiESaIS4_EEEESt10_Select1stIS7_ESt4lessIiESaIS7_EE6_S_keyEPKSt13_Rb_tree_nodeIS7_E
	addl	$16, %esp
	movl	%eax, %edx
	movl	-48(%ebp), %eax
	subl	$4, %esp
	pushl	%edx
	pushl	-52(%ebp)
	pushl	%eax
	call	_ZNKSt4lessIiEclERKiS2_
	addl	$16, %esp
	movb	%al, -33(%ebp)
	cmpb	$0, -33(%ebp)
	je	.L271
	subl	$12, %esp
	pushl	-20(%ebp)
	call	_ZNSt8_Rb_treeIiSt4pairIKiNSt7__cxx114listIS0_IiiESaIS4_EEEESt10_Select1stIS7_ESt4lessIiESaIS7_EE7_S_leftEPSt18_Rb_tree_node_base
	addl	$16, %esp
	jmp	.L272
.L271:
	subl	$12, %esp
	pushl	-20(%ebp)
	call	_ZNSt8_Rb_treeIiSt4pairIKiNSt7__cxx114listIS0_IiiESaIS4_EEEESt10_Select1stIS7_ESt4lessIiESaIS7_EE8_S_rightEPSt18_Rb_tree_node_base
	addl	$16, %esp
.L272:
	movl	%eax, -20(%ebp)
	jmp	.L273
.L270:
	subl	$8, %esp
	pushl	-16(%ebp)
	leal	-32(%ebp), %eax
	pushl	%eax
	call	_ZNSt17_Rb_tree_iteratorISt4pairIKiNSt7__cxx114listIS0_IiiESaIS4_EEEEEC1EPSt13_Rb_tree_nodeIS7_E
	addl	$16, %esp
	cmpb	$0, -33(%ebp)
	je	.L274
	leal	-24(%ebp), %eax
	subl	$8, %esp
	pushl	-48(%ebp)
	pushl	%eax
	call	_ZNSt8_Rb_treeIiSt4pairIKiNSt7__cxx114listIS0_IiiESaIS4_EEEESt10_Select1stIS7_ESt4lessIiESaIS7_EE5beginEv
	addl	$12, %esp
	subl	$8, %esp
	leal	-24(%ebp), %eax
	pushl	%eax
	leal	-32(%ebp), %eax
	pushl	%eax
	call	_ZNKSt17_Rb_tree_iteratorISt4pairIKiNSt7__cxx114listIS0_IiiESaIS4_EEEEEeqERKS8_
	addl	$16, %esp
	testb	%al, %al
	je	.L275
	movl	-16(%ebp), %eax
	movl	%eax, -24(%ebp)
	movl	-20(%ebp), %eax
	movl	%eax, -28(%ebp)
	subl	$4, %esp
	leal	-24(%ebp), %eax
	pushl	%eax
	leal	-28(%ebp), %eax
	pushl	%eax
	pushl	-44(%ebp)
	call	_ZNSt4pairIPSt18_Rb_tree_node_baseS1_EC1ERKS1_S4_
	addl	$16, %esp
	jmp	.L269
.L275:
	subl	$12, %esp
	leal	-32(%ebp), %eax
	pushl	%eax
	call	_ZNSt17_Rb_tree_iteratorISt4pairIKiNSt7__cxx114listIS0_IiiESaIS4_EEEEEmmEv
	addl	$16, %esp
.L274:
	movl	-32(%ebp), %eax
	subl	$12, %esp
	pushl	%eax
	call	_ZNSt8_Rb_treeIiSt4pairIKiNSt7__cxx114listIS0_IiiESaIS4_EEEESt10_Select1stIS7_ESt4lessIiESaIS7_EE6_S_keyEPKSt18_Rb_tree_node_base
	addl	$16, %esp
	movl	%eax, %edx
	movl	-48(%ebp), %eax
	subl	$4, %esp
	pushl	-52(%ebp)
	pushl	%edx
	pushl	%eax
	call	_ZNKSt4lessIiEclERKiS2_
	addl	$16, %esp
	testb	%al, %al
	je	.L277
	movl	-16(%ebp), %eax
	movl	%eax, -24(%ebp)
	movl	-20(%ebp), %eax
	movl	%eax, -28(%ebp)
	subl	$4, %esp
	leal	-24(%ebp), %eax
	pushl	%eax
	leal	-28(%ebp), %eax
	pushl	%eax
	pushl	-44(%ebp)
	call	_ZNSt4pairIPSt18_Rb_tree_node_baseS1_EC1ERKS1_S4_
	addl	$16, %esp
	jmp	.L269
.L277:
	movl	$0, -24(%ebp)
	subl	$4, %esp
	leal	-24(%ebp), %eax
	pushl	%eax
	leal	-32(%ebp), %eax
	pushl	%eax
	pushl	-44(%ebp)
	call	_ZNSt4pairIPSt18_Rb_tree_node_baseS1_EC1ERKS1_S4_
	addl	$16, %esp
.L269:
	movl	-44(%ebp), %eax
	movl	-12(%ebp), %ecx
	xorl	%gs:20, %ecx
	je	.L279
	call	__stack_chk_fail
.L279:
	leave
	ret	$4
	.size	_ZNSt8_Rb_treeIiSt4pairIKiNSt7__cxx114listIS0_IiiESaIS4_EEEESt10_Select1stIS7_ESt4lessIiESaIS7_EE24_M_get_insert_unique_posERS1_, .-_ZNSt8_Rb_treeIiSt4pairIKiNSt7__cxx114listIS0_IiiESaIS4_EEEESt10_Select1stIS7_ESt4lessIiESaIS7_EE24_M_get_insert_unique_posERS1_
	.section	.text._ZNSt8_Rb_treeIiSt4pairIKiNSt7__cxx114listIS0_IiiESaIS4_EEEESt10_Select1stIS7_ESt4lessIiESaIS7_EE11_M_leftmostEv,"axG",@progbits,_ZNSt8_Rb_treeIiSt4pairIKiNSt7__cxx114listIS0_IiiESaIS4_EEEESt10_Select1stIS7_ESt4lessIiESaIS7_EE11_M_leftmostEv,comdat
	.align 2
	.weak	_ZNSt8_Rb_treeIiSt4pairIKiNSt7__cxx114listIS0_IiiESaIS4_EEEESt10_Select1stIS7_ESt4lessIiESaIS7_EE11_M_leftmostEv
	.type	_ZNSt8_Rb_treeIiSt4pairIKiNSt7__cxx114listIS0_IiiESaIS4_EEEESt10_Select1stIS7_ESt4lessIiESaIS7_EE11_M_leftmostEv, @function
_ZNSt8_Rb_treeIiSt4pairIKiNSt7__cxx114listIS0_IiiESaIS4_EEEESt10_Select1stIS7_ESt4lessIiESaIS7_EE11_M_leftmostEv:
	pushl	%ebp
	movl	%esp, %ebp
	movl	8(%ebp), %eax
	addl	$12, %eax
	popl	%ebp
	ret
	.size	_ZNSt8_Rb_treeIiSt4pairIKiNSt7__cxx114listIS0_IiiESaIS4_EEEESt10_Select1stIS7_ESt4lessIiESaIS7_EE11_M_leftmostEv, .-_ZNSt8_Rb_treeIiSt4pairIKiNSt7__cxx114listIS0_IiiESaIS4_EEEESt10_Select1stIS7_ESt4lessIiESaIS7_EE11_M_leftmostEv
	.section	.text._ZNSt17_Rb_tree_iteratorISt4pairIKiNSt7__cxx114listIS0_IiiESaIS4_EEEEEmmEv,"axG",@progbits,_ZNSt17_Rb_tree_iteratorISt4pairIKiNSt7__cxx114listIS0_IiiESaIS4_EEEEEmmEv,comdat
	.align 2
	.weak	_ZNSt17_Rb_tree_iteratorISt4pairIKiNSt7__cxx114listIS0_IiiESaIS4_EEEEEmmEv
	.type	_ZNSt17_Rb_tree_iteratorISt4pairIKiNSt7__cxx114listIS0_IiiESaIS4_EEEEEmmEv, @function
_ZNSt17_Rb_tree_iteratorISt4pairIKiNSt7__cxx114listIS0_IiiESaIS4_EEEEEmmEv:
	pushl	%ebp
	movl	%esp, %ebp
	subl	$8, %esp
	movl	8(%ebp), %eax
	movl	(%eax), %eax
	subl	$12, %esp
	pushl	%eax
	call	_ZSt18_Rb_tree_decrementPSt18_Rb_tree_node_base
	addl	$16, %esp
	movl	%eax, %edx
	movl	8(%ebp), %eax
	movl	%edx, (%eax)
	movl	8(%ebp), %eax
	leave
	ret
	.size	_ZNSt17_Rb_tree_iteratorISt4pairIKiNSt7__cxx114listIS0_IiiESaIS4_EEEEEmmEv, .-_ZNSt17_Rb_tree_iteratorISt4pairIKiNSt7__cxx114listIS0_IiiESaIS4_EEEEEmmEv
	.section	.text._ZNSt17_Rb_tree_iteratorISt4pairIKiNSt7__cxx114listIS0_IiiESaIS4_EEEEEppEv,"axG",@progbits,_ZNSt17_Rb_tree_iteratorISt4pairIKiNSt7__cxx114listIS0_IiiESaIS4_EEEEEppEv,comdat
	.align 2
	.weak	_ZNSt17_Rb_tree_iteratorISt4pairIKiNSt7__cxx114listIS0_IiiESaIS4_EEEEEppEv
	.type	_ZNSt17_Rb_tree_iteratorISt4pairIKiNSt7__cxx114listIS0_IiiESaIS4_EEEEEppEv, @function
_ZNSt17_Rb_tree_iteratorISt4pairIKiNSt7__cxx114listIS0_IiiESaIS4_EEEEEppEv:
	pushl	%ebp
	movl	%esp, %ebp
	subl	$8, %esp
	movl	8(%ebp), %eax
	movl	(%eax), %eax
	subl	$12, %esp
	pushl	%eax
	call	_ZSt18_Rb_tree_incrementPSt18_Rb_tree_node_base
	addl	$16, %esp
	movl	%eax, %edx
	movl	8(%ebp), %eax
	movl	%edx, (%eax)
	movl	8(%ebp), %eax
	leave
	ret
	.size	_ZNSt17_Rb_tree_iteratorISt4pairIKiNSt7__cxx114listIS0_IiiESaIS4_EEEEEppEv, .-_ZNSt17_Rb_tree_iteratorISt4pairIKiNSt7__cxx114listIS0_IiiESaIS4_EEEEEppEv
	.section	.text._ZNKSt8_Rb_treeIiSt4pairIKiNSt7__cxx114listIS0_IiiESaIS4_EEEESt10_Select1stIS7_ESt4lessIiESaIS7_EE11_Alloc_nodeclIS7_EEPSt13_Rb_tree_nodeIS7_ERKT_,"axG",@progbits,_ZNKSt8_Rb_treeIiSt4pairIKiNSt7__cxx114listIS0_IiiESaIS4_EEEESt10_Select1stIS7_ESt4lessIiESaIS7_EE11_Alloc_nodeclIS7_EEPSt13_Rb_tree_nodeIS7_ERKT_,comdat
	.align 2
	.weak	_ZNKSt8_Rb_treeIiSt4pairIKiNSt7__cxx114listIS0_IiiESaIS4_EEEESt10_Select1stIS7_ESt4lessIiESaIS7_EE11_Alloc_nodeclIS7_EEPSt13_Rb_tree_nodeIS7_ERKT_
	.type	_ZNKSt8_Rb_treeIiSt4pairIKiNSt7__cxx114listIS0_IiiESaIS4_EEEESt10_Select1stIS7_ESt4lessIiESaIS7_EE11_Alloc_nodeclIS7_EEPSt13_Rb_tree_nodeIS7_ERKT_, @function
_ZNKSt8_Rb_treeIiSt4pairIKiNSt7__cxx114listIS0_IiiESaIS4_EEEESt10_Select1stIS7_ESt4lessIiESaIS7_EE11_Alloc_nodeclIS7_EEPSt13_Rb_tree_nodeIS7_ERKT_:
	pushl	%ebp
	movl	%esp, %ebp
	subl	$8, %esp
	movl	8(%ebp), %eax
	movl	(%eax), %eax
	subl	$8, %esp
	pushl	12(%ebp)
	pushl	%eax
	call	_ZNSt8_Rb_treeIiSt4pairIKiNSt7__cxx114listIS0_IiiESaIS4_EEEESt10_Select1stIS7_ESt4lessIiESaIS7_EE14_M_create_nodeERKS7_
	addl	$16, %esp
	leave
	ret
	.size	_ZNKSt8_Rb_treeIiSt4pairIKiNSt7__cxx114listIS0_IiiESaIS4_EEEESt10_Select1stIS7_ESt4lessIiESaIS7_EE11_Alloc_nodeclIS7_EEPSt13_Rb_tree_nodeIS7_ERKT_, .-_ZNKSt8_Rb_treeIiSt4pairIKiNSt7__cxx114listIS0_IiiESaIS4_EEEESt10_Select1stIS7_ESt4lessIiESaIS7_EE11_Alloc_nodeclIS7_EEPSt13_Rb_tree_nodeIS7_ERKT_
	.section	.text._ZNK9__gnu_cxx13new_allocatorISt10_List_nodeISt4pairIiiEEE8max_sizeEv,"axG",@progbits,_ZNK9__gnu_cxx13new_allocatorISt10_List_nodeISt4pairIiiEEE8max_sizeEv,comdat
	.align 2
	.weak	_ZNK9__gnu_cxx13new_allocatorISt10_List_nodeISt4pairIiiEEE8max_sizeEv
	.type	_ZNK9__gnu_cxx13new_allocatorISt10_List_nodeISt4pairIiiEEE8max_sizeEv, @function
_ZNK9__gnu_cxx13new_allocatorISt10_List_nodeISt4pairIiiEEE8max_sizeEv:
	pushl	%ebp
	movl	%esp, %ebp
	movl	$268435455, %eax
	popl	%ebp
	ret
	.size	_ZNK9__gnu_cxx13new_allocatorISt10_List_nodeISt4pairIiiEEE8max_sizeEv, .-_ZNK9__gnu_cxx13new_allocatorISt10_List_nodeISt4pairIiiEEE8max_sizeEv
	.section	.text._ZNKSt8_Rb_treeIiSt4pairIKiNSt7__cxx114listIS0_IiiESaIS4_EEEESt10_Select1stIS7_ESt4lessIiESaIS7_EE21_M_get_Node_allocatorEv,"axG",@progbits,_ZNKSt8_Rb_treeIiSt4pairIKiNSt7__cxx114listIS0_IiiESaIS4_EEEESt10_Select1stIS7_ESt4lessIiESaIS7_EE21_M_get_Node_allocatorEv,comdat
	.align 2
	.weak	_ZNKSt8_Rb_treeIiSt4pairIKiNSt7__cxx114listIS0_IiiESaIS4_EEEESt10_Select1stIS7_ESt4lessIiESaIS7_EE21_M_get_Node_allocatorEv
	.type	_ZNKSt8_Rb_treeIiSt4pairIKiNSt7__cxx114listIS0_IiiESaIS4_EEEESt10_Select1stIS7_ESt4lessIiESaIS7_EE21_M_get_Node_allocatorEv, @function
_ZNKSt8_Rb_treeIiSt4pairIKiNSt7__cxx114listIS0_IiiESaIS4_EEEESt10_Select1stIS7_ESt4lessIiESaIS7_EE21_M_get_Node_allocatorEv:
	pushl	%ebp
	movl	%esp, %ebp
	movl	8(%ebp), %eax
	popl	%ebp
	ret
	.size	_ZNKSt8_Rb_treeIiSt4pairIKiNSt7__cxx114listIS0_IiiESaIS4_EEEESt10_Select1stIS7_ESt4lessIiESaIS7_EE21_M_get_Node_allocatorEv, .-_ZNKSt8_Rb_treeIiSt4pairIKiNSt7__cxx114listIS0_IiiESaIS4_EEEESt10_Select1stIS7_ESt4lessIiESaIS7_EE21_M_get_Node_allocatorEv
	.section	.text._ZNSaISt4pairIKiNSt7__cxx114listIS_IiiESaIS3_EEEEEC2ISt13_Rb_tree_nodeIS6_EEERKSaIT_E,"axG",@progbits,_ZNSaISt4pairIKiNSt7__cxx114listIS_IiiESaIS3_EEEEEC5ISt13_Rb_tree_nodeIS6_EEERKSaIT_E,comdat
	.align 2
	.weak	_ZNSaISt4pairIKiNSt7__cxx114listIS_IiiESaIS3_EEEEEC2ISt13_Rb_tree_nodeIS6_EEERKSaIT_E
	.type	_ZNSaISt4pairIKiNSt7__cxx114listIS_IiiESaIS3_EEEEEC2ISt13_Rb_tree_nodeIS6_EEERKSaIT_E, @function
_ZNSaISt4pairIKiNSt7__cxx114listIS_IiiESaIS3_EEEEEC2ISt13_Rb_tree_nodeIS6_EEERKSaIT_E:
	pushl	%ebp
	movl	%esp, %ebp
	subl	$8, %esp
	subl	$12, %esp
	pushl	8(%ebp)
	call	_ZN9__gnu_cxx13new_allocatorISt4pairIKiNSt7__cxx114listIS1_IiiESaIS5_EEEEEC2Ev
	addl	$16, %esp
	nop
	leave
	ret
	.size	_ZNSaISt4pairIKiNSt7__cxx114listIS_IiiESaIS3_EEEEEC2ISt13_Rb_tree_nodeIS6_EEERKSaIT_E, .-_ZNSaISt4pairIKiNSt7__cxx114listIS_IiiESaIS3_EEEEEC2ISt13_Rb_tree_nodeIS6_EEERKSaIT_E
	.weak	_ZNSaISt4pairIKiNSt7__cxx114listIS_IiiESaIS3_EEEEEC1ISt13_Rb_tree_nodeIS6_EEERKSaIT_E
	.set	_ZNSaISt4pairIKiNSt7__cxx114listIS_IiiESaIS3_EEEEEC1ISt13_Rb_tree_nodeIS6_EEERKSaIT_E,_ZNSaISt4pairIKiNSt7__cxx114listIS_IiiESaIS3_EEEEEC2ISt13_Rb_tree_nodeIS6_EEERKSaIT_E
	.section	.text._ZN9__gnu_cxx13new_allocatorISt4pairIKiNSt7__cxx114listIS1_IiiESaIS5_EEEEED2Ev,"axG",@progbits,_ZN9__gnu_cxx13new_allocatorISt4pairIKiNSt7__cxx114listIS1_IiiESaIS5_EEEEED5Ev,comdat
	.align 2
	.weak	_ZN9__gnu_cxx13new_allocatorISt4pairIKiNSt7__cxx114listIS1_IiiESaIS5_EEEEED2Ev
	.type	_ZN9__gnu_cxx13new_allocatorISt4pairIKiNSt7__cxx114listIS1_IiiESaIS5_EEEEED2Ev, @function
_ZN9__gnu_cxx13new_allocatorISt4pairIKiNSt7__cxx114listIS1_IiiESaIS5_EEEEED2Ev:
	pushl	%ebp
	movl	%esp, %ebp
	nop
	popl	%ebp
	ret
	.size	_ZN9__gnu_cxx13new_allocatorISt4pairIKiNSt7__cxx114listIS1_IiiESaIS5_EEEEED2Ev, .-_ZN9__gnu_cxx13new_allocatorISt4pairIKiNSt7__cxx114listIS1_IiiESaIS5_EEEEED2Ev
	.weak	_ZN9__gnu_cxx13new_allocatorISt4pairIKiNSt7__cxx114listIS1_IiiESaIS5_EEEEED1Ev
	.set	_ZN9__gnu_cxx13new_allocatorISt4pairIKiNSt7__cxx114listIS1_IiiESaIS5_EEEEED1Ev,_ZN9__gnu_cxx13new_allocatorISt4pairIKiNSt7__cxx114listIS1_IiiESaIS5_EEEEED2Ev
	.section	.text._ZN9__gnu_cxx13new_allocatorISt13_Rb_tree_nodeISt4pairIKiNSt7__cxx114listIS2_IiiESaIS6_EEEEEE10deallocateEPSA_j,"axG",@progbits,_ZN9__gnu_cxx13new_allocatorISt13_Rb_tree_nodeISt4pairIKiNSt7__cxx114listIS2_IiiESaIS6_EEEEEE10deallocateEPSA_j,comdat
	.align 2
	.weak	_ZN9__gnu_cxx13new_allocatorISt13_Rb_tree_nodeISt4pairIKiNSt7__cxx114listIS2_IiiESaIS6_EEEEEE10deallocateEPSA_j
	.type	_ZN9__gnu_cxx13new_allocatorISt13_Rb_tree_nodeISt4pairIKiNSt7__cxx114listIS2_IiiESaIS6_EEEEEE10deallocateEPSA_j, @function
_ZN9__gnu_cxx13new_allocatorISt13_Rb_tree_nodeISt4pairIKiNSt7__cxx114listIS2_IiiESaIS6_EEEEEE10deallocateEPSA_j:
	pushl	%ebp
	movl	%esp, %ebp
	subl	$8, %esp
	subl	$12, %esp
	pushl	12(%ebp)
	call	_ZdlPv
	addl	$16, %esp
	nop
	leave
	ret
	.size	_ZN9__gnu_cxx13new_allocatorISt13_Rb_tree_nodeISt4pairIKiNSt7__cxx114listIS2_IiiESaIS6_EEEEEE10deallocateEPSA_j, .-_ZN9__gnu_cxx13new_allocatorISt13_Rb_tree_nodeISt4pairIKiNSt7__cxx114listIS2_IiiESaIS6_EEEEEE10deallocateEPSA_j
	.section	.text._ZNKSt13_Rb_tree_nodeISt4pairIKiNSt7__cxx114listIS0_IiiESaIS4_EEEEE9_M_valptrEv,"axG",@progbits,_ZNKSt13_Rb_tree_nodeISt4pairIKiNSt7__cxx114listIS0_IiiESaIS4_EEEEE9_M_valptrEv,comdat
	.align 2
	.weak	_ZNKSt13_Rb_tree_nodeISt4pairIKiNSt7__cxx114listIS0_IiiESaIS4_EEEEE9_M_valptrEv
	.type	_ZNKSt13_Rb_tree_nodeISt4pairIKiNSt7__cxx114listIS0_IiiESaIS4_EEEEE9_M_valptrEv, @function
_ZNKSt13_Rb_tree_nodeISt4pairIKiNSt7__cxx114listIS0_IiiESaIS4_EEEEE9_M_valptrEv:
	pushl	%ebp
	movl	%esp, %ebp
	subl	$8, %esp
	movl	8(%ebp), %eax
	addl	$16, %eax
	subl	$12, %esp
	pushl	%eax
	call	_ZSt11__addressofIKSt4pairIKiNSt7__cxx114listIS0_IiiESaIS4_EEEEEPT_RS9_
	addl	$16, %esp
	leave
	ret
	.size	_ZNKSt13_Rb_tree_nodeISt4pairIKiNSt7__cxx114listIS0_IiiESaIS4_EEEEE9_M_valptrEv, .-_ZNKSt13_Rb_tree_nodeISt4pairIKiNSt7__cxx114listIS0_IiiESaIS4_EEEEE9_M_valptrEv
	.section	.text._ZN9__gnu_cxx13new_allocatorISt10_List_nodeISt4pairIiiEEEC2ERKS5_,"axG",@progbits,_ZN9__gnu_cxx13new_allocatorISt10_List_nodeISt4pairIiiEEEC5ERKS5_,comdat
	.align 2
	.weak	_ZN9__gnu_cxx13new_allocatorISt10_List_nodeISt4pairIiiEEEC2ERKS5_
	.type	_ZN9__gnu_cxx13new_allocatorISt10_List_nodeISt4pairIiiEEEC2ERKS5_, @function
_ZN9__gnu_cxx13new_allocatorISt10_List_nodeISt4pairIiiEEEC2ERKS5_:
	pushl	%ebp
	movl	%esp, %ebp
	nop
	popl	%ebp
	ret
	.size	_ZN9__gnu_cxx13new_allocatorISt10_List_nodeISt4pairIiiEEEC2ERKS5_, .-_ZN9__gnu_cxx13new_allocatorISt10_List_nodeISt4pairIiiEEEC2ERKS5_
	.weak	_ZN9__gnu_cxx13new_allocatorISt10_List_nodeISt4pairIiiEEEC1ERKS5_
	.set	_ZN9__gnu_cxx13new_allocatorISt10_List_nodeISt4pairIiiEEEC1ERKS5_,_ZN9__gnu_cxx13new_allocatorISt10_List_nodeISt4pairIiiEEEC2ERKS5_
	.section	.text._ZNSt8_Rb_treeIiSt4pairIKiNSt7__cxx114listIS0_IiiESaIS4_EEEESt10_Select1stIS7_ESt4lessIiESaIS7_EE8_S_valueEPKSt18_Rb_tree_node_base,"axG",@progbits,_ZNSt8_Rb_treeIiSt4pairIKiNSt7__cxx114listIS0_IiiESaIS4_EEEESt10_Select1stIS7_ESt4lessIiESaIS7_EE8_S_valueEPKSt18_Rb_tree_node_base,comdat
	.weak	_ZNSt8_Rb_treeIiSt4pairIKiNSt7__cxx114listIS0_IiiESaIS4_EEEESt10_Select1stIS7_ESt4lessIiESaIS7_EE8_S_valueEPKSt18_Rb_tree_node_base
	.type	_ZNSt8_Rb_treeIiSt4pairIKiNSt7__cxx114listIS0_IiiESaIS4_EEEESt10_Select1stIS7_ESt4lessIiESaIS7_EE8_S_valueEPKSt18_Rb_tree_node_base, @function
_ZNSt8_Rb_treeIiSt4pairIKiNSt7__cxx114listIS0_IiiESaIS4_EEEESt10_Select1stIS7_ESt4lessIiESaIS7_EE8_S_valueEPKSt18_Rb_tree_node_base:
	pushl	%ebp
	movl	%esp, %ebp
	subl	$8, %esp
	subl	$12, %esp
	pushl	8(%ebp)
	call	_ZNKSt13_Rb_tree_nodeISt4pairIKiNSt7__cxx114listIS0_IiiESaIS4_EEEEE9_M_valptrEv
	addl	$16, %esp
	leave
	ret
	.size	_ZNSt8_Rb_treeIiSt4pairIKiNSt7__cxx114listIS0_IiiESaIS4_EEEESt10_Select1stIS7_ESt4lessIiESaIS7_EE8_S_valueEPKSt18_Rb_tree_node_base, .-_ZNSt8_Rb_treeIiSt4pairIKiNSt7__cxx114listIS0_IiiESaIS4_EEEESt10_Select1stIS7_ESt4lessIiESaIS7_EE8_S_valueEPKSt18_Rb_tree_node_base
	.section	.text._ZNSt8_Rb_treeIiSt4pairIKiNSt7__cxx114listIS0_IiiESaIS4_EEEESt10_Select1stIS7_ESt4lessIiESaIS7_EE5beginEv,"axG",@progbits,_ZNSt8_Rb_treeIiSt4pairIKiNSt7__cxx114listIS0_IiiESaIS4_EEEESt10_Select1stIS7_ESt4lessIiESaIS7_EE5beginEv,comdat
	.align 2
	.weak	_ZNSt8_Rb_treeIiSt4pairIKiNSt7__cxx114listIS0_IiiESaIS4_EEEESt10_Select1stIS7_ESt4lessIiESaIS7_EE5beginEv
	.type	_ZNSt8_Rb_treeIiSt4pairIKiNSt7__cxx114listIS0_IiiESaIS4_EEEESt10_Select1stIS7_ESt4lessIiESaIS7_EE5beginEv, @function
_ZNSt8_Rb_treeIiSt4pairIKiNSt7__cxx114listIS0_IiiESaIS4_EEEESt10_Select1stIS7_ESt4lessIiESaIS7_EE5beginEv:
	pushl	%ebp
	movl	%esp, %ebp
	subl	$8, %esp
	movl	12(%ebp), %eax
	movl	12(%eax), %eax
	subl	$8, %esp
	pushl	%eax
	pushl	8(%ebp)
	call	_ZNSt17_Rb_tree_iteratorISt4pairIKiNSt7__cxx114listIS0_IiiESaIS4_EEEEEC1EPSt13_Rb_tree_nodeIS7_E
	addl	$16, %esp
	movl	8(%ebp), %eax
	leave
	ret	$4
	.size	_ZNSt8_Rb_treeIiSt4pairIKiNSt7__cxx114listIS0_IiiESaIS4_EEEESt10_Select1stIS7_ESt4lessIiESaIS7_EE5beginEv, .-_ZNSt8_Rb_treeIiSt4pairIKiNSt7__cxx114listIS0_IiiESaIS4_EEEESt10_Select1stIS7_ESt4lessIiESaIS7_EE5beginEv
	.section	.text._ZNSt8_Rb_treeIiSt4pairIKiNSt7__cxx114listIS0_IiiESaIS4_EEEESt10_Select1stIS7_ESt4lessIiESaIS7_EE14_M_create_nodeERKS7_,"axG",@progbits,_ZNSt8_Rb_treeIiSt4pairIKiNSt7__cxx114listIS0_IiiESaIS4_EEEESt10_Select1stIS7_ESt4lessIiESaIS7_EE14_M_create_nodeERKS7_,comdat
	.align 2
	.weak	_ZNSt8_Rb_treeIiSt4pairIKiNSt7__cxx114listIS0_IiiESaIS4_EEEESt10_Select1stIS7_ESt4lessIiESaIS7_EE14_M_create_nodeERKS7_
	.type	_ZNSt8_Rb_treeIiSt4pairIKiNSt7__cxx114listIS0_IiiESaIS4_EEEESt10_Select1stIS7_ESt4lessIiESaIS7_EE14_M_create_nodeERKS7_, @function
_ZNSt8_Rb_treeIiSt4pairIKiNSt7__cxx114listIS0_IiiESaIS4_EEEESt10_Select1stIS7_ESt4lessIiESaIS7_EE14_M_create_nodeERKS7_:
	pushl	%ebp
	movl	%esp, %ebp
	subl	$24, %esp
	subl	$12, %esp
	pushl	8(%ebp)
	call	_ZNSt8_Rb_treeIiSt4pairIKiNSt7__cxx114listIS0_IiiESaIS4_EEEESt10_Select1stIS7_ESt4lessIiESaIS7_EE11_M_get_nodeEv
	addl	$16, %esp
	movl	%eax, -12(%ebp)
	subl	$4, %esp
	pushl	12(%ebp)
	pushl	-12(%ebp)
	pushl	8(%ebp)
	call	_ZNSt8_Rb_treeIiSt4pairIKiNSt7__cxx114listIS0_IiiESaIS4_EEEESt10_Select1stIS7_ESt4lessIiESaIS7_EE17_M_construct_nodeEPSt13_Rb_tree_nodeIS7_ERKS7_
	addl	$16, %esp
	movl	-12(%ebp), %eax
	leave
	ret
	.size	_ZNSt8_Rb_treeIiSt4pairIKiNSt7__cxx114listIS0_IiiESaIS4_EEEESt10_Select1stIS7_ESt4lessIiESaIS7_EE14_M_create_nodeERKS7_, .-_ZNSt8_Rb_treeIiSt4pairIKiNSt7__cxx114listIS0_IiiESaIS4_EEEESt10_Select1stIS7_ESt4lessIiESaIS7_EE14_M_create_nodeERKS7_
	.section	.text._ZN9__gnu_cxx13new_allocatorISt4pairIKiNSt7__cxx114listIS1_IiiESaIS5_EEEEEC2Ev,"axG",@progbits,_ZN9__gnu_cxx13new_allocatorISt4pairIKiNSt7__cxx114listIS1_IiiESaIS5_EEEEEC5Ev,comdat
	.align 2
	.weak	_ZN9__gnu_cxx13new_allocatorISt4pairIKiNSt7__cxx114listIS1_IiiESaIS5_EEEEEC2Ev
	.type	_ZN9__gnu_cxx13new_allocatorISt4pairIKiNSt7__cxx114listIS1_IiiESaIS5_EEEEEC2Ev, @function
_ZN9__gnu_cxx13new_allocatorISt4pairIKiNSt7__cxx114listIS1_IiiESaIS5_EEEEEC2Ev:
	pushl	%ebp
	movl	%esp, %ebp
	nop
	popl	%ebp
	ret
	.size	_ZN9__gnu_cxx13new_allocatorISt4pairIKiNSt7__cxx114listIS1_IiiESaIS5_EEEEEC2Ev, .-_ZN9__gnu_cxx13new_allocatorISt4pairIKiNSt7__cxx114listIS1_IiiESaIS5_EEEEEC2Ev
	.weak	_ZN9__gnu_cxx13new_allocatorISt4pairIKiNSt7__cxx114listIS1_IiiESaIS5_EEEEEC1Ev
	.set	_ZN9__gnu_cxx13new_allocatorISt4pairIKiNSt7__cxx114listIS1_IiiESaIS5_EEEEEC1Ev,_ZN9__gnu_cxx13new_allocatorISt4pairIKiNSt7__cxx114listIS1_IiiESaIS5_EEEEEC2Ev
	.section	.text._ZSt11__addressofIKSt4pairIKiNSt7__cxx114listIS0_IiiESaIS4_EEEEEPT_RS9_,"axG",@progbits,_ZSt11__addressofIKSt4pairIKiNSt7__cxx114listIS0_IiiESaIS4_EEEEEPT_RS9_,comdat
	.weak	_ZSt11__addressofIKSt4pairIKiNSt7__cxx114listIS0_IiiESaIS4_EEEEEPT_RS9_
	.type	_ZSt11__addressofIKSt4pairIKiNSt7__cxx114listIS0_IiiESaIS4_EEEEEPT_RS9_, @function
_ZSt11__addressofIKSt4pairIKiNSt7__cxx114listIS0_IiiESaIS4_EEEEEPT_RS9_:
	pushl	%ebp
	movl	%esp, %ebp
	movl	8(%ebp), %eax
	popl	%ebp
	ret
	.size	_ZSt11__addressofIKSt4pairIKiNSt7__cxx114listIS0_IiiESaIS4_EEEEEPT_RS9_, .-_ZSt11__addressofIKSt4pairIKiNSt7__cxx114listIS0_IiiESaIS4_EEEEEPT_RS9_
	.section	.text._ZNSt8_Rb_treeIiSt4pairIKiNSt7__cxx114listIS0_IiiESaIS4_EEEESt10_Select1stIS7_ESt4lessIiESaIS7_EE11_M_get_nodeEv,"axG",@progbits,_ZNSt8_Rb_treeIiSt4pairIKiNSt7__cxx114listIS0_IiiESaIS4_EEEESt10_Select1stIS7_ESt4lessIiESaIS7_EE11_M_get_nodeEv,comdat
	.align 2
	.weak	_ZNSt8_Rb_treeIiSt4pairIKiNSt7__cxx114listIS0_IiiESaIS4_EEEESt10_Select1stIS7_ESt4lessIiESaIS7_EE11_M_get_nodeEv
	.type	_ZNSt8_Rb_treeIiSt4pairIKiNSt7__cxx114listIS0_IiiESaIS4_EEEESt10_Select1stIS7_ESt4lessIiESaIS7_EE11_M_get_nodeEv, @function
_ZNSt8_Rb_treeIiSt4pairIKiNSt7__cxx114listIS0_IiiESaIS4_EEEESt10_Select1stIS7_ESt4lessIiESaIS7_EE11_M_get_nodeEv:
	pushl	%ebp
	movl	%esp, %ebp
	subl	$8, %esp
	subl	$12, %esp
	pushl	8(%ebp)
	call	_ZNSt8_Rb_treeIiSt4pairIKiNSt7__cxx114listIS0_IiiESaIS4_EEEESt10_Select1stIS7_ESt4lessIiESaIS7_EE21_M_get_Node_allocatorEv
	addl	$16, %esp
	subl	$8, %esp
	pushl	$1
	pushl	%eax
	call	_ZN9__gnu_cxx14__alloc_traitsISaISt13_Rb_tree_nodeISt4pairIKiNSt7__cxx114listIS2_IiiESaIS6_EEEEEEE8allocateERSB_j
	addl	$16, %esp
	leave
	ret
	.size	_ZNSt8_Rb_treeIiSt4pairIKiNSt7__cxx114listIS0_IiiESaIS4_EEEESt10_Select1stIS7_ESt4lessIiESaIS7_EE11_M_get_nodeEv, .-_ZNSt8_Rb_treeIiSt4pairIKiNSt7__cxx114listIS0_IiiESaIS4_EEEESt10_Select1stIS7_ESt4lessIiESaIS7_EE11_M_get_nodeEv
	.section	.text._ZNSt8_Rb_treeIiSt4pairIKiNSt7__cxx114listIS0_IiiESaIS4_EEEESt10_Select1stIS7_ESt4lessIiESaIS7_EE17_M_construct_nodeEPSt13_Rb_tree_nodeIS7_ERKS7_,"axG",@progbits,_ZNSt8_Rb_treeIiSt4pairIKiNSt7__cxx114listIS0_IiiESaIS4_EEEESt10_Select1stIS7_ESt4lessIiESaIS7_EE17_M_construct_nodeEPSt13_Rb_tree_nodeIS7_ERKS7_,comdat
	.align 2
	.weak	_ZNSt8_Rb_treeIiSt4pairIKiNSt7__cxx114listIS0_IiiESaIS4_EEEESt10_Select1stIS7_ESt4lessIiESaIS7_EE17_M_construct_nodeEPSt13_Rb_tree_nodeIS7_ERKS7_
	.type	_ZNSt8_Rb_treeIiSt4pairIKiNSt7__cxx114listIS0_IiiESaIS4_EEEESt10_Select1stIS7_ESt4lessIiESaIS7_EE17_M_construct_nodeEPSt13_Rb_tree_nodeIS7_ERKS7_, @function
_ZNSt8_Rb_treeIiSt4pairIKiNSt7__cxx114listIS0_IiiESaIS4_EEEESt10_Select1stIS7_ESt4lessIiESaIS7_EE17_M_construct_nodeEPSt13_Rb_tree_nodeIS7_ERKS7_:
	pushl	%ebp
	movl	%esp, %ebp
	pushl	%ebx
	subl	$36, %esp
	movl	8(%ebp), %eax
	movl	%eax, -28(%ebp)
	movl	12(%ebp), %eax
	movl	%eax, -32(%ebp)
	movl	16(%ebp), %eax
	movl	%eax, -36(%ebp)
	movl	%gs:20, %eax
	movl	%eax, -12(%ebp)
	xorl	%eax, %eax
	subl	$12, %esp
	pushl	-32(%ebp)
	call	_ZNSt13_Rb_tree_nodeISt4pairIKiNSt7__cxx114listIS0_IiiESaIS4_EEEEE9_M_valptrEv
	addl	$16, %esp
	movl	%eax, %ebx
	leal	-13(%ebp), %eax
	subl	$8, %esp
	pushl	-28(%ebp)
	pushl	%eax
	call	_ZNKSt8_Rb_treeIiSt4pairIKiNSt7__cxx114listIS0_IiiESaIS4_EEEESt10_Select1stIS7_ESt4lessIiESaIS7_EE13get_allocatorEv
	addl	$12, %esp
	subl	$4, %esp
	pushl	-36(%ebp)
	pushl	%ebx
	leal	-13(%ebp), %eax
	pushl	%eax
	call	_ZN9__gnu_cxx13new_allocatorISt4pairIKiNSt7__cxx114listIS1_IiiESaIS5_EEEEE9constructEPS8_RKS8_
	addl	$16, %esp
	subl	$12, %esp
	leal	-13(%ebp), %eax
	pushl	%eax
	call	_ZNSaISt4pairIKiNSt7__cxx114listIS_IiiESaIS3_EEEEED1Ev
	addl	$16, %esp
	nop
	movl	-12(%ebp), %eax
	xorl	%gs:20, %eax
	je	.L310
	call	__stack_chk_fail
.L310:
	movl	-4(%ebp), %ebx
	leave
	ret
	.size	_ZNSt8_Rb_treeIiSt4pairIKiNSt7__cxx114listIS0_IiiESaIS4_EEEESt10_Select1stIS7_ESt4lessIiESaIS7_EE17_M_construct_nodeEPSt13_Rb_tree_nodeIS7_ERKS7_, .-_ZNSt8_Rb_treeIiSt4pairIKiNSt7__cxx114listIS0_IiiESaIS4_EEEESt10_Select1stIS7_ESt4lessIiESaIS7_EE17_M_construct_nodeEPSt13_Rb_tree_nodeIS7_ERKS7_
	.section	.text._ZN9__gnu_cxx14__alloc_traitsISaISt13_Rb_tree_nodeISt4pairIKiNSt7__cxx114listIS2_IiiESaIS6_EEEEEEE8allocateERSB_j,"axG",@progbits,_ZN9__gnu_cxx14__alloc_traitsISaISt13_Rb_tree_nodeISt4pairIKiNSt7__cxx114listIS2_IiiESaIS6_EEEEEEE8allocateERSB_j,comdat
	.weak	_ZN9__gnu_cxx14__alloc_traitsISaISt13_Rb_tree_nodeISt4pairIKiNSt7__cxx114listIS2_IiiESaIS6_EEEEEEE8allocateERSB_j
	.type	_ZN9__gnu_cxx14__alloc_traitsISaISt13_Rb_tree_nodeISt4pairIKiNSt7__cxx114listIS2_IiiESaIS6_EEEEEEE8allocateERSB_j, @function
_ZN9__gnu_cxx14__alloc_traitsISaISt13_Rb_tree_nodeISt4pairIKiNSt7__cxx114listIS2_IiiESaIS6_EEEEEEE8allocateERSB_j:
	pushl	%ebp
	movl	%esp, %ebp
	subl	$8, %esp
	subl	$4, %esp
	pushl	$0
	pushl	12(%ebp)
	pushl	8(%ebp)
	call	_ZN9__gnu_cxx13new_allocatorISt13_Rb_tree_nodeISt4pairIKiNSt7__cxx114listIS2_IiiESaIS6_EEEEEE8allocateEjPKv
	addl	$16, %esp
	leave
	ret
	.size	_ZN9__gnu_cxx14__alloc_traitsISaISt13_Rb_tree_nodeISt4pairIKiNSt7__cxx114listIS2_IiiESaIS6_EEEEEEE8allocateERSB_j, .-_ZN9__gnu_cxx14__alloc_traitsISaISt13_Rb_tree_nodeISt4pairIKiNSt7__cxx114listIS2_IiiESaIS6_EEEEEEE8allocateERSB_j
	.section	.text._ZNSt4pairIKiNSt7__cxx114listIS_IiiESaIS3_EEEEC2ERKS6_,"axG",@progbits,_ZNSt4pairIKiNSt7__cxx114listIS_IiiESaIS3_EEEEC5ERKS6_,comdat
	.align 2
	.weak	_ZNSt4pairIKiNSt7__cxx114listIS_IiiESaIS3_EEEEC2ERKS6_
	.type	_ZNSt4pairIKiNSt7__cxx114listIS_IiiESaIS3_EEEEC2ERKS6_, @function
_ZNSt4pairIKiNSt7__cxx114listIS_IiiESaIS3_EEEEC2ERKS6_:
	pushl	%ebp
	movl	%esp, %ebp
	subl	$8, %esp
	movl	12(%ebp), %eax
	movl	(%eax), %edx
	movl	8(%ebp), %eax
	movl	%edx, (%eax)
	movl	12(%ebp), %eax
	leal	4(%eax), %edx
	movl	8(%ebp), %eax
	addl	$4, %eax
	subl	$8, %esp
	pushl	%edx
	pushl	%eax
	call	_ZNSt7__cxx114listISt4pairIiiESaIS2_EEC1ERKS4_
	addl	$16, %esp
	nop
	leave
	ret
	.size	_ZNSt4pairIKiNSt7__cxx114listIS_IiiESaIS3_EEEEC2ERKS6_, .-_ZNSt4pairIKiNSt7__cxx114listIS_IiiESaIS3_EEEEC2ERKS6_
	.weak	_ZNSt4pairIKiNSt7__cxx114listIS_IiiESaIS3_EEEEC1ERKS6_
	.set	_ZNSt4pairIKiNSt7__cxx114listIS_IiiESaIS3_EEEEC1ERKS6_,_ZNSt4pairIKiNSt7__cxx114listIS_IiiESaIS3_EEEEC2ERKS6_
	.section	.text._ZN9__gnu_cxx13new_allocatorISt4pairIKiNSt7__cxx114listIS1_IiiESaIS5_EEEEE9constructEPS8_RKS8_,"axG",@progbits,_ZN9__gnu_cxx13new_allocatorISt4pairIKiNSt7__cxx114listIS1_IiiESaIS5_EEEEE9constructEPS8_RKS8_,comdat
	.align 2
	.weak	_ZN9__gnu_cxx13new_allocatorISt4pairIKiNSt7__cxx114listIS1_IiiESaIS5_EEEEE9constructEPS8_RKS8_
	.type	_ZN9__gnu_cxx13new_allocatorISt4pairIKiNSt7__cxx114listIS1_IiiESaIS5_EEEEE9constructEPS8_RKS8_, @function
_ZN9__gnu_cxx13new_allocatorISt4pairIKiNSt7__cxx114listIS1_IiiESaIS5_EEEEE9constructEPS8_RKS8_:
	pushl	%ebp
	movl	%esp, %ebp
	subl	$8, %esp
	movl	12(%ebp), %eax
	subl	$8, %esp
	pushl	%eax
	pushl	$16
	call	_ZnwjPv
	addl	$16, %esp
	testl	%eax, %eax
	je	.L317
	subl	$8, %esp
	pushl	16(%ebp)
	pushl	%eax
	call	_ZNSt4pairIKiNSt7__cxx114listIS_IiiESaIS3_EEEEC1ERKS6_
	addl	$16, %esp
.L317:
	nop
	leave
	ret
	.size	_ZN9__gnu_cxx13new_allocatorISt4pairIKiNSt7__cxx114listIS1_IiiESaIS5_EEEEE9constructEPS8_RKS8_, .-_ZN9__gnu_cxx13new_allocatorISt4pairIKiNSt7__cxx114listIS1_IiiESaIS5_EEEEE9constructEPS8_RKS8_
	.section	.text._ZN9__gnu_cxx13new_allocatorISt13_Rb_tree_nodeISt4pairIKiNSt7__cxx114listIS2_IiiESaIS6_EEEEEE8allocateEjPKv,"axG",@progbits,_ZN9__gnu_cxx13new_allocatorISt13_Rb_tree_nodeISt4pairIKiNSt7__cxx114listIS2_IiiESaIS6_EEEEEE8allocateEjPKv,comdat
	.align 2
	.weak	_ZN9__gnu_cxx13new_allocatorISt13_Rb_tree_nodeISt4pairIKiNSt7__cxx114listIS2_IiiESaIS6_EEEEEE8allocateEjPKv
	.type	_ZN9__gnu_cxx13new_allocatorISt13_Rb_tree_nodeISt4pairIKiNSt7__cxx114listIS2_IiiESaIS6_EEEEEE8allocateEjPKv, @function
_ZN9__gnu_cxx13new_allocatorISt13_Rb_tree_nodeISt4pairIKiNSt7__cxx114listIS2_IiiESaIS6_EEEEEE8allocateEjPKv:
	pushl	%ebp
	movl	%esp, %ebp
	subl	$8, %esp
	subl	$12, %esp
	pushl	8(%ebp)
	call	_ZNK9__gnu_cxx13new_allocatorISt13_Rb_tree_nodeISt4pairIKiNSt7__cxx114listIS2_IiiESaIS6_EEEEEE8max_sizeEv
	addl	$16, %esp
	cmpl	12(%ebp), %eax
	setb	%al
	testb	%al, %al
	je	.L319
	call	_ZSt17__throw_bad_allocv
.L319:
	movl	12(%ebp), %eax
	sall	$5, %eax
	subl	$12, %esp
	pushl	%eax
	call	_Znwj
	addl	$16, %esp
	leave
	ret
	.size	_ZN9__gnu_cxx13new_allocatorISt13_Rb_tree_nodeISt4pairIKiNSt7__cxx114listIS2_IiiESaIS6_EEEEEE8allocateEjPKv, .-_ZN9__gnu_cxx13new_allocatorISt13_Rb_tree_nodeISt4pairIKiNSt7__cxx114listIS2_IiiESaIS6_EEEEEE8allocateEjPKv
	.section	.text._ZNK9__gnu_cxx13new_allocatorISt13_Rb_tree_nodeISt4pairIKiNSt7__cxx114listIS2_IiiESaIS6_EEEEEE8max_sizeEv,"axG",@progbits,_ZNK9__gnu_cxx13new_allocatorISt13_Rb_tree_nodeISt4pairIKiNSt7__cxx114listIS2_IiiESaIS6_EEEEEE8max_sizeEv,comdat
	.align 2
	.weak	_ZNK9__gnu_cxx13new_allocatorISt13_Rb_tree_nodeISt4pairIKiNSt7__cxx114listIS2_IiiESaIS6_EEEEEE8max_sizeEv
	.type	_ZNK9__gnu_cxx13new_allocatorISt13_Rb_tree_nodeISt4pairIKiNSt7__cxx114listIS2_IiiESaIS6_EEEEEE8max_sizeEv, @function
_ZNK9__gnu_cxx13new_allocatorISt13_Rb_tree_nodeISt4pairIKiNSt7__cxx114listIS2_IiiESaIS6_EEEEEE8max_sizeEv:
	pushl	%ebp
	movl	%esp, %ebp
	movl	$134217727, %eax
	popl	%ebp
	ret
	.size	_ZNK9__gnu_cxx13new_allocatorISt13_Rb_tree_nodeISt4pairIKiNSt7__cxx114listIS2_IiiESaIS6_EEEEEE8max_sizeEv, .-_ZNK9__gnu_cxx13new_allocatorISt13_Rb_tree_nodeISt4pairIKiNSt7__cxx114listIS2_IiiESaIS6_EEEEEE8max_sizeEv
	.section	.text._ZNSt3mapIiNSt7__cxx114listISt4pairIiiESaIS3_EEESt4lessIiESaIS2_IKiS5_EEED2Ev,"axG",@progbits,_ZNSt3mapIiNSt7__cxx114listISt4pairIiiESaIS3_EEESt4lessIiESaIS2_IKiS5_EEED5Ev,comdat
	.align 2
	.weak	_ZNSt3mapIiNSt7__cxx114listISt4pairIiiESaIS3_EEESt4lessIiESaIS2_IKiS5_EEED2Ev
	.type	_ZNSt3mapIiNSt7__cxx114listISt4pairIiiESaIS3_EEESt4lessIiESaIS2_IKiS5_EEED2Ev, @function
_ZNSt3mapIiNSt7__cxx114listISt4pairIiiESaIS3_EEESt4lessIiESaIS2_IKiS5_EEED2Ev:
	pushl	%ebp
	movl	%esp, %ebp
	subl	$8, %esp
	movl	8(%ebp), %eax
	subl	$12, %esp
	pushl	%eax
	call	_ZNSt8_Rb_treeIiSt4pairIKiNSt7__cxx114listIS0_IiiESaIS4_EEEESt10_Select1stIS7_ESt4lessIiESaIS7_EED1Ev
	addl	$16, %esp
	nop
	leave
	ret
	.size	_ZNSt3mapIiNSt7__cxx114listISt4pairIiiESaIS3_EEESt4lessIiESaIS2_IKiS5_EEED2Ev, .-_ZNSt3mapIiNSt7__cxx114listISt4pairIiiESaIS3_EEESt4lessIiESaIS2_IKiS5_EEED2Ev
	.weak	_ZNSt3mapIiNSt7__cxx114listISt4pairIiiESaIS3_EEESt4lessIiESaIS2_IKiS5_EEED1Ev
	.set	_ZNSt3mapIiNSt7__cxx114listISt4pairIiiESaIS3_EEESt4lessIiESaIS2_IKiS5_EEED1Ev,_ZNSt3mapIiNSt7__cxx114listISt4pairIiiESaIS3_EEESt4lessIiESaIS2_IKiS5_EEED2Ev
	.text
	.type	_Z41__static_initialization_and_destruction_0ii, @function
_Z41__static_initialization_and_destruction_0ii:
	pushl	%ebp
	movl	%esp, %ebp
	subl	$8, %esp
	cmpl	$1, 8(%ebp)
	jne	.L326
	cmpl	$65535, 12(%ebp)
	jne	.L326
	subl	$12, %esp
	pushl	$_Z5mymapB5cxx11
	call	_ZNSt3mapIiNSt7__cxx114listISt4pairIiiESaIS3_EEESt4lessIiESaIS2_IKiS5_EEEC1Ev
	addl	$16, %esp
	subl	$4, %esp
	pushl	$__dso_handle
	pushl	$_Z5mymapB5cxx11
	pushl	$_ZNSt3mapIiNSt7__cxx114listISt4pairIiiESaIS3_EEESt4lessIiESaIS2_IKiS5_EEED1Ev
	call	__cxa_atexit
	addl	$16, %esp
	subl	$12, %esp
	pushl	$_Z3itrB5cxx11
	call	_ZNSt17_Rb_tree_iteratorISt4pairIKiNSt7__cxx114listIS0_IiiESaIS4_EEEEEC1Ev
	addl	$16, %esp
.L326:
	nop
	leave
	ret
	.size	_Z41__static_initialization_and_destruction_0ii, .-_Z41__static_initialization_and_destruction_0ii
	.type	_GLOBAL__sub_I__Z5mymapB5cxx11, @function
_GLOBAL__sub_I__Z5mymapB5cxx11:
	pushl	%ebp
	movl	%esp, %ebp
	subl	$8, %esp
	subl	$8, %esp
	pushl	$65535
	pushl	$1
	call	_Z41__static_initialization_and_destruction_0ii
	addl	$16, %esp
	leave
	ret
	.size	_GLOBAL__sub_I__Z5mymapB5cxx11, .-_GLOBAL__sub_I__Z5mymapB5cxx11
	.section	.init_array,"aw"
	.align 4
	.long	_GLOBAL__sub_I__Z5mymapB5cxx11
	.hidden	__dso_handle
	.ident	"GCC: (Ubuntu 5.1.1-4ubuntu12) 5.1.1 20150504"
	.section	.note.GNU-stack,"",@progbits
